Archive member included to satisfy reference by file (symbol)

../../mAbassi/Platform/lib\lib_mAbassi_EVAL_R_GCC_AR5_CY5.a(mAbassi_EVAL_A9_GCC_2.o)
                              CGI_SSI.o (TSKgetID)
../../mAbassi/Platform/lib\lib_mAbassi_EVAL_R_GCC_AR5_CY5.a(mAbassi_EVAL_GCC_AR5_CY5.o)
                              (_vector_table)
../../mAbassi/Platform/lib\lib_mAbassi_EVAL_R_GCC_AR5_CY5.a(ARMv7_SMP_L1_L2_GCC_AR5_CY5.o)
                              ../../mAbassi/Platform/lib\lib_mAbassi_EVAL_R_GCC_AR5_CY5.a(mAbassi_EVAL_GCC_AR5_CY5.o) (COREcacheON)
c:/intelfpga/18.0/embedded/host_tools/mentor/gnu/arm/baremetal/bin/../lib/gcc/arm-altera-eabi/6.2.0/../../../../arm-altera-eabi/lib\libcs3.a(start_c.o)
                              (__cs3_start_c)
c:/intelfpga/18.0/embedded/host_tools/mentor/gnu/arm/baremetal/bin/../lib/gcc/arm-altera-eabi/6.2.0/../../../../arm-altera-eabi/lib\libcs3unhosted.a(unhosted-start.o)
                              ../../mAbassi/Platform/lib\lib_mAbassi_EVAL_R_GCC_AR5_CY5.a(mAbassi_EVAL_GCC_AR5_CY5.o) (_start)
c:/intelfpga/18.0/embedded/host_tools/mentor/gnu/arm/baremetal/bin/../lib/gcc/arm-altera-eabi/6.2.0\libgcc.a(_udivsi3.o)
                              arm_pl330.o (__aeabi_uidiv)
c:/intelfpga/18.0/embedded/host_tools/mentor/gnu/arm/baremetal/bin/../lib/gcc/arm-altera-eabi/6.2.0\libgcc.a(_divsi3.o)
                              arm_pl330.o (__aeabi_idiv)
c:/intelfpga/18.0/embedded/host_tools/mentor/gnu/arm/baremetal/bin/../lib/gcc/arm-altera-eabi/6.2.0\libgcc.a(_dvmd_tls.o)
                              c:/intelfpga/18.0/embedded/host_tools/mentor/gnu/arm/baremetal/bin/../lib/gcc/arm-altera-eabi/6.2.0\libgcc.a(_udivsi3.o) (__aeabi_idiv0)
c:/intelfpga/18.0/embedded/host_tools/mentor/gnu/arm/baremetal/bin/../lib/gcc/arm-altera-eabi/6.2.0\libgcc.a(_aeabi_ldivmod.o)
                              Media_FatFS.o (__aeabi_ldivmod)
c:/intelfpga/18.0/embedded/host_tools/mentor/gnu/arm/baremetal/bin/../lib/gcc/arm-altera-eabi/6.2.0\libgcc.a(_aeabi_uldivmod.o)
                              ff.o (__aeabi_uldivmod)
c:/intelfpga/18.0/embedded/host_tools/mentor/gnu/arm/baremetal/bin/../lib/gcc/arm-altera-eabi/6.2.0\libgcc.a(_udivmoddi4.o)
                              c:/intelfpga/18.0/embedded/host_tools/mentor/gnu/arm/baremetal/bin/../lib/gcc/arm-altera-eabi/6.2.0\libgcc.a(_aeabi_ldivmod.o) (__udivmoddi4)
c:/intelfpga/18.0/embedded/host_tools/mentor/gnu/arm/baremetal/bin/../lib/gcc/arm-altera-eabi/6.2.0\libgcc.a(_clzdi2.o)
                              c:/intelfpga/18.0/embedded/host_tools/mentor/gnu/arm/baremetal/bin/../lib/gcc/arm-altera-eabi/6.2.0\libgcc.a(_udivmoddi4.o) (__clzdi2)
c:/intelfpga/18.0/embedded/host_tools/mentor/gnu/arm/baremetal/bin/../lib/gcc/arm-altera-eabi/6.2.0\libgcc.a(_clzsi2.o)
                              c:/intelfpga/18.0/embedded/host_tools/mentor/gnu/arm/baremetal/bin/../lib/gcc/arm-altera-eabi/6.2.0\libgcc.a(_clzdi2.o) (__clzsi2)
c:/intelfpga/18.0/embedded/host_tools/mentor/gnu/arm/baremetal/bin/../lib/gcc/arm-altera-eabi/6.2.0/../../../../arm-altera-eabi/lib\libc.a(lib_a-calloc.o)
                              ../../mAbassi/Platform/lib\lib_mAbassi_EVAL_R_GCC_AR5_CY5.a(mAbassi_EVAL_A9_GCC_2.o) (calloc)
c:/intelfpga/18.0/embedded/host_tools/mentor/gnu/arm/baremetal/bin/../lib/gcc/arm-altera-eabi/6.2.0/../../../../arm-altera-eabi/lib\libc.a(lib_a-callocr.o)
                              c:/intelfpga/18.0/embedded/host_tools/mentor/gnu/arm/baremetal/bin/../lib/gcc/arm-altera-eabi/6.2.0/../../../../arm-altera-eabi/lib\libc.a(lib_a-calloc.o) (_calloc_r)
c:/intelfpga/18.0/embedded/host_tools/mentor/gnu/arm/baremetal/bin/../lib/gcc/arm-altera-eabi/6.2.0/../../../../arm-altera-eabi/lib\libc.a(lib_a-errno.o)
                              SysCall_CY5.o (__errno)
c:/intelfpga/18.0/embedded/host_tools/mentor/gnu/arm/baremetal/bin/../lib/gcc/arm-altera-eabi/6.2.0/../../../../arm-altera-eabi/lib\libc.a(lib_a-fwrite.o)
                              NetAddr.o (fwrite)
c:/intelfpga/18.0/embedded/host_tools/mentor/gnu/arm/baremetal/bin/../lib/gcc/arm-altera-eabi/6.2.0/../../../../arm-altera-eabi/lib\libc.a(lib_a-gets.o)
                              MyFatFS.o (gets)
c:/intelfpga/18.0/embedded/host_tools/mentor/gnu/arm/baremetal/bin/../lib/gcc/arm-altera-eabi/6.2.0/../../../../arm-altera-eabi/lib\libc.a(lib_a-impure.o)
                              ../../mAbassi/Platform/lib\lib_mAbassi_EVAL_R_GCC_AR5_CY5.a(mAbassi_EVAL_A9_GCC_2.o) (_global_impure_ptr)
c:/intelfpga/18.0/embedded/host_tools/mentor/gnu/arm/baremetal/bin/../lib/gcc/arm-altera-eabi/6.2.0/../../../../arm-altera-eabi/lib\libc.a(lib_a-init.o)
                              c:/intelfpga/18.0/embedded/host_tools/mentor/gnu/arm/baremetal/bin/../lib/gcc/arm-altera-eabi/6.2.0/../../../../arm-altera-eabi/lib\libcs3.a(start_c.o) (__libc_init_array)
c:/intelfpga/18.0/embedded/host_tools/mentor/gnu/arm/baremetal/bin/../lib/gcc/arm-altera-eabi/6.2.0/../../../../arm-altera-eabi/lib\libc.a(lib_a-malloc.o)
                              MyFatFS.o (malloc)
c:/intelfpga/18.0/embedded/host_tools/mentor/gnu/arm/baremetal/bin/../lib/gcc/arm-altera-eabi/6.2.0/../../../../arm-altera-eabi/lib\libc.a(lib_a-mallocr.o)
                              c:/intelfpga/18.0/embedded/host_tools/mentor/gnu/arm/baremetal/bin/../lib/gcc/arm-altera-eabi/6.2.0/../../../../arm-altera-eabi/lib\libc.a(lib_a-callocr.o) (_malloc_r)
c:/intelfpga/18.0/embedded/host_tools/mentor/gnu/arm/baremetal/bin/../lib/gcc/arm-altera-eabi/6.2.0/../../../../arm-altera-eabi/lib\libc.a(lib_a-memcmp.o)
                              etharp.o (memcmp)
c:/intelfpga/18.0/embedded/host_tools/mentor/gnu/arm/baremetal/bin/../lib/gcc/arm-altera-eabi/6.2.0/../../../../arm-altera-eabi/lib\libc.a(lib_a-memcpy-stub.o)
                              MyApp_Web.o (memcpy)
c:/intelfpga/18.0/embedded/host_tools/mentor/gnu/arm/baremetal/bin/../lib/gcc/arm-altera-eabi/6.2.0/../../../../arm-altera-eabi/lib\libc.a(lib_a-memmove.o)
                              WebServer.o (memmove)
c:/intelfpga/18.0/embedded/host_tools/mentor/gnu/arm/baremetal/bin/../lib/gcc/arm-altera-eabi/6.2.0/../../../../arm-altera-eabi/lib\libc.a(lib_a-memset.o)
                              MyFatFS.o (memset)
c:/intelfpga/18.0/embedded/host_tools/mentor/gnu/arm/baremetal/bin/../lib/gcc/arm-altera-eabi/6.2.0/../../../../arm-altera-eabi/lib\libc.a(lib_a-mktime.o)
                              SysCall_CY5.o (mktime)
c:/intelfpga/18.0/embedded/host_tools/mentor/gnu/arm/baremetal/bin/../lib/gcc/arm-altera-eabi/6.2.0/../../../../arm-altera-eabi/lib\libc.a(lib_a-printf.o)
                              Main_mAbassi.o (printf)
c:/intelfpga/18.0/embedded/host_tools/mentor/gnu/arm/baremetal/bin/../lib/gcc/arm-altera-eabi/6.2.0/../../../../arm-altera-eabi/lib\libc.a(lib_a-putchar.o)
                              MyFatFS.o (putchar)
c:/intelfpga/18.0/embedded/host_tools/mentor/gnu/arm/baremetal/bin/../lib/gcc/arm-altera-eabi/6.2.0/../../../../arm-altera-eabi/lib\libc.a(lib_a-puts.o)
                              MyApp_Web.o (puts)
c:/intelfpga/18.0/embedded/host_tools/mentor/gnu/arm/baremetal/bin/../lib/gcc/arm-altera-eabi/6.2.0/../../../../arm-altera-eabi/lib\libc.a(lib_a-realloc.o)
                              WebServer.o (realloc)
c:/intelfpga/18.0/embedded/host_tools/mentor/gnu/arm/baremetal/bin/../lib/gcc/arm-altera-eabi/6.2.0/../../../../arm-altera-eabi/lib\libc.a(lib_a-reallocr.o)
                              c:/intelfpga/18.0/embedded/host_tools/mentor/gnu/arm/baremetal/bin/../lib/gcc/arm-altera-eabi/6.2.0/../../../../arm-altera-eabi/lib\libc.a(lib_a-realloc.o) (_realloc_r)
c:/intelfpga/18.0/embedded/host_tools/mentor/gnu/arm/baremetal/bin/../lib/gcc/arm-altera-eabi/6.2.0/../../../../arm-altera-eabi/lib\libc.a(lib_a-rget.o)
                              MyFatFS.o (__srget_r)
c:/intelfpga/18.0/embedded/host_tools/mentor/gnu/arm/baremetal/bin/../lib/gcc/arm-altera-eabi/6.2.0/../../../../arm-altera-eabi/lib\libc.a(lib_a-setvbuf.o)
                              Main_mAbassi.o (setvbuf)
c:/intelfpga/18.0/embedded/host_tools/mentor/gnu/arm/baremetal/bin/../lib/gcc/arm-altera-eabi/6.2.0/../../../../arm-altera-eabi/lib\libc.a(lib_a-sprintf.o)
                              CGI_SSI.o (sprintf)
c:/intelfpga/18.0/embedded/host_tools/mentor/gnu/arm/baremetal/bin/../lib/gcc/arm-altera-eabi/6.2.0/../../../../arm-altera-eabi/lib\libc.a(lib_a-stpcpy.o)
                              MyFatFS.o (stpcpy)
c:/intelfpga/18.0/embedded/host_tools/mentor/gnu/arm/baremetal/bin/../lib/gcc/arm-altera-eabi/6.2.0/../../../../arm-altera-eabi/lib\libc.a(lib_a-strchr.o)
                              MyFatFS.o (strchr)
c:/intelfpga/18.0/embedded/host_tools/mentor/gnu/arm/baremetal/bin/../lib/gcc/arm-altera-eabi/6.2.0/../../../../arm-altera-eabi/lib\libc.a(lib_a-strcmp.o)
                              MyFatFS.o (strcmp)
c:/intelfpga/18.0/embedded/host_tools/mentor/gnu/arm/baremetal/bin/../lib/gcc/arm-altera-eabi/6.2.0/../../../../arm-altera-eabi/lib\libc.a(lib_a-strcpy.o)
                              WebServer.o (strcpy)
c:/intelfpga/18.0/embedded/host_tools/mentor/gnu/arm/baremetal/bin/../lib/gcc/arm-altera-eabi/6.2.0/../../../../arm-altera-eabi/lib\libc.a(lib_a-strcspn.o)
                              WebServer.o (strcspn)
c:/intelfpga/18.0/embedded/host_tools/mentor/gnu/arm/baremetal/bin/../lib/gcc/arm-altera-eabi/6.2.0/../../../../arm-altera-eabi/lib\libc.a(lib_a-strlen-stub.o)
                              CGI_SSI.o (strlen)
c:/intelfpga/18.0/embedded/host_tools/mentor/gnu/arm/baremetal/bin/../lib/gcc/arm-altera-eabi/6.2.0/../../../../arm-altera-eabi/lib\libc.a(lib_a-strncmp.o)
                              WebServer.o (strncmp)
c:/intelfpga/18.0/embedded/host_tools/mentor/gnu/arm/baremetal/bin/../lib/gcc/arm-altera-eabi/6.2.0/../../../../arm-altera-eabi/lib\libc.a(lib_a-strncpy.o)
                              WebServer.o (strncpy)
c:/intelfpga/18.0/embedded/host_tools/mentor/gnu/arm/baremetal/bin/../lib/gcc/arm-altera-eabi/6.2.0/../../../../arm-altera-eabi/lib\libc.a(lib_a-strspn.o)
                              WebServer.o (strspn)
c:/intelfpga/18.0/embedded/host_tools/mentor/gnu/arm/baremetal/bin/../lib/gcc/arm-altera-eabi/6.2.0/../../../../arm-altera-eabi/lib\libc.a(lib_a-strstr.o)
                              WebServer.o (strstr)
c:/intelfpga/18.0/embedded/host_tools/mentor/gnu/arm/baremetal/bin/../lib/gcc/arm-altera-eabi/6.2.0/../../../../arm-altera-eabi/lib\libc.a(lib_a-strtol.o)
                              MyFatFS.o (strtol)
c:/intelfpga/18.0/embedded/host_tools/mentor/gnu/arm/baremetal/bin/../lib/gcc/arm-altera-eabi/6.2.0/../../../../arm-altera-eabi/lib\libc.a(lib_a-strtoul.o)
                              MyFatFS.o (strtoul)
c:/intelfpga/18.0/embedded/host_tools/mentor/gnu/arm/baremetal/bin/../lib/gcc/arm-altera-eabi/6.2.0/../../../../arm-altera-eabi/lib\libc.a(lib_a-svfprintf.o)
                              c:/intelfpga/18.0/embedded/host_tools/mentor/gnu/arm/baremetal/bin/../lib/gcc/arm-altera-eabi/6.2.0/../../../../arm-altera-eabi/lib\libc.a(lib_a-sprintf.o) (_svfprintf_r)
c:/intelfpga/18.0/embedded/host_tools/mentor/gnu/arm/baremetal/bin/../lib/gcc/arm-altera-eabi/6.2.0/../../../../arm-altera-eabi/lib\libc.a(lib_a-tzcalc_limits.o)
                              c:/intelfpga/18.0/embedded/host_tools/mentor/gnu/arm/baremetal/bin/../lib/gcc/arm-altera-eabi/6.2.0/../../../../arm-altera-eabi/lib\libc.a(lib_a-mktime.o) (__tzcalc_limits)
c:/intelfpga/18.0/embedded/host_tools/mentor/gnu/arm/baremetal/bin/../lib/gcc/arm-altera-eabi/6.2.0/../../../../arm-altera-eabi/lib\libc.a(lib_a-tzset.o)
                              c:/intelfpga/18.0/embedded/host_tools/mentor/gnu/arm/baremetal/bin/../lib/gcc/arm-altera-eabi/6.2.0/../../../../arm-altera-eabi/lib\libc.a(lib_a-mktime.o) (_tzset_unlocked)
c:/intelfpga/18.0/embedded/host_tools/mentor/gnu/arm/baremetal/bin/../lib/gcc/arm-altera-eabi/6.2.0/../../../../arm-altera-eabi/lib\libc.a(lib_a-tzset_r.o)
                              c:/intelfpga/18.0/embedded/host_tools/mentor/gnu/arm/baremetal/bin/../lib/gcc/arm-altera-eabi/6.2.0/../../../../arm-altera-eabi/lib\libc.a(lib_a-tzset.o) (_tzset_unlocked_r)
c:/intelfpga/18.0/embedded/host_tools/mentor/gnu/arm/baremetal/bin/../lib/gcc/arm-altera-eabi/6.2.0/../../../../arm-altera-eabi/lib\libc.a(lib_a-tzvars.o)
                              c:/intelfpga/18.0/embedded/host_tools/mentor/gnu/arm/baremetal/bin/../lib/gcc/arm-altera-eabi/6.2.0/../../../../arm-altera-eabi/lib\libc.a(lib_a-tzset_r.o) (_timezone)
c:/intelfpga/18.0/embedded/host_tools/mentor/gnu/arm/baremetal/bin/../lib/gcc/arm-altera-eabi/6.2.0/../../../../arm-altera-eabi/lib\libc.a(lib_a-vfprintf.o)
                              c:/intelfpga/18.0/embedded/host_tools/mentor/gnu/arm/baremetal/bin/../lib/gcc/arm-altera-eabi/6.2.0/../../../../arm-altera-eabi/lib\libc.a(lib_a-printf.o) (_vfprintf_r)
c:/intelfpga/18.0/embedded/host_tools/mentor/gnu/arm/baremetal/bin/../lib/gcc/arm-altera-eabi/6.2.0/../../../../arm-altera-eabi/lib\libc.a(lib_a-wbuf.o)
                              MyFatFS.o (__swbuf_r)
c:/intelfpga/18.0/embedded/host_tools/mentor/gnu/arm/baremetal/bin/../lib/gcc/arm-altera-eabi/6.2.0/../../../../arm-altera-eabi/lib\libc.a(lib_a-wsetup.o)
                              c:/intelfpga/18.0/embedded/host_tools/mentor/gnu/arm/baremetal/bin/../lib/gcc/arm-altera-eabi/6.2.0/../../../../arm-altera-eabi/lib\libc.a(lib_a-vfprintf.o) (__swsetup_r)
c:/intelfpga/18.0/embedded/host_tools/mentor/gnu/arm/baremetal/bin/../lib/gcc/arm-altera-eabi/6.2.0/../../../../arm-altera-eabi/lib\libc.a(lib_a-div.o)
                              c:/intelfpga/18.0/embedded/host_tools/mentor/gnu/arm/baremetal/bin/../lib/gcc/arm-altera-eabi/6.2.0/../../../../arm-altera-eabi/lib\libc.a(lib_a-mktime.o) (div)
c:/intelfpga/18.0/embedded/host_tools/mentor/gnu/arm/baremetal/bin/../lib/gcc/arm-altera-eabi/6.2.0/../../../../arm-altera-eabi/lib\libc.a(lib_a-dtoa.o)
                              c:/intelfpga/18.0/embedded/host_tools/mentor/gnu/arm/baremetal/bin/../lib/gcc/arm-altera-eabi/6.2.0/../../../../arm-altera-eabi/lib\libc.a(lib_a-svfprintf.o) (_dtoa_r)
c:/intelfpga/18.0/embedded/host_tools/mentor/gnu/arm/baremetal/bin/../lib/gcc/arm-altera-eabi/6.2.0/../../../../arm-altera-eabi/lib\libc.a(lib_a-fflush.o)
                              c:/intelfpga/18.0/embedded/host_tools/mentor/gnu/arm/baremetal/bin/../lib/gcc/arm-altera-eabi/6.2.0/../../../../arm-altera-eabi/lib\libc.a(lib_a-setvbuf.o) (_fflush_r)
c:/intelfpga/18.0/embedded/host_tools/mentor/gnu/arm/baremetal/bin/../lib/gcc/arm-altera-eabi/6.2.0/../../../../arm-altera-eabi/lib\libc.a(lib_a-findfp.o)
                              c:/intelfpga/18.0/embedded/host_tools/mentor/gnu/arm/baremetal/bin/../lib/gcc/arm-altera-eabi/6.2.0/../../../../arm-altera-eabi/lib\libc.a(lib_a-fwrite.o) (__sinit)
c:/intelfpga/18.0/embedded/host_tools/mentor/gnu/arm/baremetal/bin/../lib/gcc/arm-altera-eabi/6.2.0/../../../../arm-altera-eabi/lib\libc.a(lib_a-freer.o)
                              c:/intelfpga/18.0/embedded/host_tools/mentor/gnu/arm/baremetal/bin/../lib/gcc/arm-altera-eabi/6.2.0/../../../../arm-altera-eabi/lib\libc.a(lib_a-malloc.o) (_free_r)
c:/intelfpga/18.0/embedded/host_tools/mentor/gnu/arm/baremetal/bin/../lib/gcc/arm-altera-eabi/6.2.0/../../../../arm-altera-eabi/lib\libc.a(lib_a-fvwrite.o)
                              c:/intelfpga/18.0/embedded/host_tools/mentor/gnu/arm/baremetal/bin/../lib/gcc/arm-altera-eabi/6.2.0/../../../../arm-altera-eabi/lib\libc.a(lib_a-fwrite.o) (__sfvwrite_r)
c:/intelfpga/18.0/embedded/host_tools/mentor/gnu/arm/baremetal/bin/../lib/gcc/arm-altera-eabi/6.2.0/../../../../arm-altera-eabi/lib\libc.a(lib_a-fwalk.o)
                              c:/intelfpga/18.0/embedded/host_tools/mentor/gnu/arm/baremetal/bin/../lib/gcc/arm-altera-eabi/6.2.0/../../../../arm-altera-eabi/lib\libc.a(lib_a-findfp.o) (_fwalk)
c:/intelfpga/18.0/embedded/host_tools/mentor/gnu/arm/baremetal/bin/../lib/gcc/arm-altera-eabi/6.2.0/../../../../arm-altera-eabi/lib\libc.a(lib_a-getenv_r.o)
                              c:/intelfpga/18.0/embedded/host_tools/mentor/gnu/arm/baremetal/bin/../lib/gcc/arm-altera-eabi/6.2.0/../../../../arm-altera-eabi/lib\libc.a(lib_a-tzset_r.o) (_getenv_r)
c:/intelfpga/18.0/embedded/host_tools/mentor/gnu/arm/baremetal/bin/../lib/gcc/arm-altera-eabi/6.2.0/../../../../arm-altera-eabi/lib\libc.a(lib_a-gettzinfo.o)
                              c:/intelfpga/18.0/embedded/host_tools/mentor/gnu/arm/baremetal/bin/../lib/gcc/arm-altera-eabi/6.2.0/../../../../arm-altera-eabi/lib\libc.a(lib_a-mktime.o) (__gettzinfo)
c:/intelfpga/18.0/embedded/host_tools/mentor/gnu/arm/baremetal/bin/../lib/gcc/arm-altera-eabi/6.2.0/../../../../arm-altera-eabi/lib\libc.a(lib_a-locale.o)
                              c:/intelfpga/18.0/embedded/host_tools/mentor/gnu/arm/baremetal/bin/../lib/gcc/arm-altera-eabi/6.2.0/../../../../arm-altera-eabi/lib\libc.a(lib_a-strtol.o) (__locale_ctype_ptr_l)
c:/intelfpga/18.0/embedded/host_tools/mentor/gnu/arm/baremetal/bin/../lib/gcc/arm-altera-eabi/6.2.0/../../../../arm-altera-eabi/lib\libc.a(lib_a-localeconv.o)
                              c:/intelfpga/18.0/embedded/host_tools/mentor/gnu/arm/baremetal/bin/../lib/gcc/arm-altera-eabi/6.2.0/../../../../arm-altera-eabi/lib\libc.a(lib_a-svfprintf.o) (_localeconv_r)
c:/intelfpga/18.0/embedded/host_tools/mentor/gnu/arm/baremetal/bin/../lib/gcc/arm-altera-eabi/6.2.0/../../../../arm-altera-eabi/lib\libc.a(lib_a-makebuf.o)
                              c:/intelfpga/18.0/embedded/host_tools/mentor/gnu/arm/baremetal/bin/../lib/gcc/arm-altera-eabi/6.2.0/../../../../arm-altera-eabi/lib\libc.a(lib_a-setvbuf.o) (__swhatbuf_r)
c:/intelfpga/18.0/embedded/host_tools/mentor/gnu/arm/baremetal/bin/../lib/gcc/arm-altera-eabi/6.2.0/../../../../arm-altera-eabi/lib\libc.a(lib_a-mbtowc_r.o)
                              c:/intelfpga/18.0/embedded/host_tools/mentor/gnu/arm/baremetal/bin/../lib/gcc/arm-altera-eabi/6.2.0/../../../../arm-altera-eabi/lib\libc.a(lib_a-locale.o) (__ascii_mbtowc)
c:/intelfpga/18.0/embedded/host_tools/mentor/gnu/arm/baremetal/bin/../lib/gcc/arm-altera-eabi/6.2.0/../../../../arm-altera-eabi/lib\libc.a(lib_a-memchr-stub.o)
                              c:/intelfpga/18.0/embedded/host_tools/mentor/gnu/arm/baremetal/bin/../lib/gcc/arm-altera-eabi/6.2.0/../../../../arm-altera-eabi/lib\libc.a(lib_a-strstr.o) (memchr)
c:/intelfpga/18.0/embedded/host_tools/mentor/gnu/arm/baremetal/bin/../lib/gcc/arm-altera-eabi/6.2.0/../../../../arm-altera-eabi/lib\libc.a(lib_a-month_lengths.o)
                              c:/intelfpga/18.0/embedded/host_tools/mentor/gnu/arm/baremetal/bin/../lib/gcc/arm-altera-eabi/6.2.0/../../../../arm-altera-eabi/lib\libc.a(lib_a-tzcalc_limits.o) (__month_lengths)
c:/intelfpga/18.0/embedded/host_tools/mentor/gnu/arm/baremetal/bin/../lib/gcc/arm-altera-eabi/6.2.0/../../../../arm-altera-eabi/lib\libc.a(lib_a-mprec.o)
                              c:/intelfpga/18.0/embedded/host_tools/mentor/gnu/arm/baremetal/bin/../lib/gcc/arm-altera-eabi/6.2.0/../../../../arm-altera-eabi/lib\libc.a(lib_a-dtoa.o) (_Balloc)
c:/intelfpga/18.0/embedded/host_tools/mentor/gnu/arm/baremetal/bin/../lib/gcc/arm-altera-eabi/6.2.0/../../../../arm-altera-eabi/lib\libc.a(lib_a-putc.o)
                              c:/intelfpga/18.0/embedded/host_tools/mentor/gnu/arm/baremetal/bin/../lib/gcc/arm-altera-eabi/6.2.0/../../../../arm-altera-eabi/lib\libc.a(lib_a-putchar.o) (_putc_r)
c:/intelfpga/18.0/embedded/host_tools/mentor/gnu/arm/baremetal/bin/../lib/gcc/arm-altera-eabi/6.2.0/../../../../arm-altera-eabi/lib\libc.a(lib_a-refill.o)
                              c:/intelfpga/18.0/embedded/host_tools/mentor/gnu/arm/baremetal/bin/../lib/gcc/arm-altera-eabi/6.2.0/../../../../arm-altera-eabi/lib\libc.a(lib_a-rget.o) (__srefill_r)
c:/intelfpga/18.0/embedded/host_tools/mentor/gnu/arm/baremetal/bin/../lib/gcc/arm-altera-eabi/6.2.0/../../../../arm-altera-eabi/lib\libc.a(lib_a-siscanf.o)
                              c:/intelfpga/18.0/embedded/host_tools/mentor/gnu/arm/baremetal/bin/../lib/gcc/arm-altera-eabi/6.2.0/../../../../arm-altera-eabi/lib\libc.a(lib_a-tzset_r.o) (siscanf)
c:/intelfpga/18.0/embedded/host_tools/mentor/gnu/arm/baremetal/bin/../lib/gcc/arm-altera-eabi/6.2.0/../../../../arm-altera-eabi/lib\libc.a(lib_a-stdio.o)
                              c:/intelfpga/18.0/embedded/host_tools/mentor/gnu/arm/baremetal/bin/../lib/gcc/arm-altera-eabi/6.2.0/../../../../arm-altera-eabi/lib\libc.a(lib_a-findfp.o) (__sread)
c:/intelfpga/18.0/embedded/host_tools/mentor/gnu/arm/baremetal/bin/../lib/gcc/arm-altera-eabi/6.2.0/../../../../arm-altera-eabi/lib\libc.a(lib_a-svfiprintf.o)
                              c:/intelfpga/18.0/embedded/host_tools/mentor/gnu/arm/baremetal/bin/../lib/gcc/arm-altera-eabi/6.2.0/../../../../arm-altera-eabi/lib\libc.a(lib_a-svfprintf.o) (__ssprint_r)
c:/intelfpga/18.0/embedded/host_tools/mentor/gnu/arm/baremetal/bin/../lib/gcc/arm-altera-eabi/6.2.0/../../../../arm-altera-eabi/lib\libc.a(lib_a-svfiscanf.o)
                              c:/intelfpga/18.0/embedded/host_tools/mentor/gnu/arm/baremetal/bin/../lib/gcc/arm-altera-eabi/6.2.0/../../../../arm-altera-eabi/lib\libc.a(lib_a-siscanf.o) (__ssvfiscanf_r)
c:/intelfpga/18.0/embedded/host_tools/mentor/gnu/arm/baremetal/bin/../lib/gcc/arm-altera-eabi/6.2.0/../../../../arm-altera-eabi/lib\libc.a(lib_a-ungetc.o)
                              c:/intelfpga/18.0/embedded/host_tools/mentor/gnu/arm/baremetal/bin/../lib/gcc/arm-altera-eabi/6.2.0/../../../../arm-altera-eabi/lib\libc.a(lib_a-svfiscanf.o) (__submore)
c:/intelfpga/18.0/embedded/host_tools/mentor/gnu/arm/baremetal/bin/../lib/gcc/arm-altera-eabi/6.2.0/../../../../arm-altera-eabi/lib\libc.a(lib_a-vfiprintf.o)
                              c:/intelfpga/18.0/embedded/host_tools/mentor/gnu/arm/baremetal/bin/../lib/gcc/arm-altera-eabi/6.2.0/../../../../arm-altera-eabi/lib\libc.a(lib_a-vfprintf.o) (__sprint_r)
c:/intelfpga/18.0/embedded/host_tools/mentor/gnu/arm/baremetal/bin/../lib/gcc/arm-altera-eabi/6.2.0/../../../../arm-altera-eabi/lib\libc.a(lib_a-wctomb_r.o)
                              c:/intelfpga/18.0/embedded/host_tools/mentor/gnu/arm/baremetal/bin/../lib/gcc/arm-altera-eabi/6.2.0/../../../../arm-altera-eabi/lib\libc.a(lib_a-locale.o) (__ascii_wctomb)
c:/intelfpga/18.0/embedded/host_tools/mentor/gnu/arm/baremetal/bin/../lib/gcc/arm-altera-eabi/6.2.0/../../../../arm-altera-eabi/lib\libc.a(lib_a-ctype_.o)
                              c:/intelfpga/18.0/embedded/host_tools/mentor/gnu/arm/baremetal/bin/../lib/gcc/arm-altera-eabi/6.2.0/../../../../arm-altera-eabi/lib\libc.a(lib_a-locale.o) (_ctype_)
c:/intelfpga/18.0/embedded/host_tools/mentor/gnu/arm/baremetal/bin/../lib/gcc/arm-altera-eabi/6.2.0/../../../../arm-altera-eabi/lib\libc.a(lib_a-environ.o)
                              c:/intelfpga/18.0/embedded/host_tools/mentor/gnu/arm/baremetal/bin/../lib/gcc/arm-altera-eabi/6.2.0/../../../../arm-altera-eabi/lib\libc.a(lib_a-getenv_r.o) (environ)
c:/intelfpga/18.0/embedded/host_tools/mentor/gnu/arm/baremetal/bin/../lib/gcc/arm-altera-eabi/6.2.0/../../../../arm-altera-eabi/lib\libc.a(lib_a-fclose.o)
                              c:/intelfpga/18.0/embedded/host_tools/mentor/gnu/arm/baremetal/bin/../lib/gcc/arm-altera-eabi/6.2.0/../../../../arm-altera-eabi/lib\libc.a(lib_a-findfp.o) (_fclose_r)
c:/intelfpga/18.0/embedded/host_tools/mentor/gnu/arm/baremetal/bin/../lib/gcc/arm-altera-eabi/6.2.0/../../../../arm-altera-eabi/lib\libc.a(lib_a-fputwc.o)
                              c:/intelfpga/18.0/embedded/host_tools/mentor/gnu/arm/baremetal/bin/../lib/gcc/arm-altera-eabi/6.2.0/../../../../arm-altera-eabi/lib\libc.a(lib_a-vfiprintf.o) (_fputwc_r)
c:/intelfpga/18.0/embedded/host_tools/mentor/gnu/arm/baremetal/bin/../lib/gcc/arm-altera-eabi/6.2.0/../../../../arm-altera-eabi/lib\libc.a(lib_a-iswspace.o)
                              c:/intelfpga/18.0/embedded/host_tools/mentor/gnu/arm/baremetal/bin/../lib/gcc/arm-altera-eabi/6.2.0/../../../../arm-altera-eabi/lib\libc.a(lib_a-svfiscanf.o) (iswspace)
c:/intelfpga/18.0/embedded/host_tools/mentor/gnu/arm/baremetal/bin/../lib/gcc/arm-altera-eabi/6.2.0/../../../../arm-altera-eabi/lib\libc.a(lib_a-mbrtowc.o)
                              c:/intelfpga/18.0/embedded/host_tools/mentor/gnu/arm/baremetal/bin/../lib/gcc/arm-altera-eabi/6.2.0/../../../../arm-altera-eabi/lib\libc.a(lib_a-svfiscanf.o) (_mbrtowc_r)
c:/intelfpga/18.0/embedded/host_tools/mentor/gnu/arm/baremetal/bin/../lib/gcc/arm-altera-eabi/6.2.0/../../../../arm-altera-eabi/lib\libc.a(lib_a-sccl.o)
                              c:/intelfpga/18.0/embedded/host_tools/mentor/gnu/arm/baremetal/bin/../lib/gcc/arm-altera-eabi/6.2.0/../../../../arm-altera-eabi/lib\libc.a(lib_a-svfiscanf.o) (__sccl)
c:/intelfpga/18.0/embedded/host_tools/mentor/gnu/arm/baremetal/bin/../lib/gcc/arm-altera-eabi/6.2.0/../../../../arm-altera-eabi/lib\libc.a(lib_a-strtoll.o)
                              c:/intelfpga/18.0/embedded/host_tools/mentor/gnu/arm/baremetal/bin/../lib/gcc/arm-altera-eabi/6.2.0/../../../../arm-altera-eabi/lib\libc.a(lib_a-svfiscanf.o) (_strtoll_r)
c:/intelfpga/18.0/embedded/host_tools/mentor/gnu/arm/baremetal/bin/../lib/gcc/arm-altera-eabi/6.2.0/../../../../arm-altera-eabi/lib\libc.a(lib_a-strtoull.o)
                              c:/intelfpga/18.0/embedded/host_tools/mentor/gnu/arm/baremetal/bin/../lib/gcc/arm-altera-eabi/6.2.0/../../../../arm-altera-eabi/lib\libc.a(lib_a-svfiscanf.o) (_strtoull_r)
c:/intelfpga/18.0/embedded/host_tools/mentor/gnu/arm/baremetal/bin/../lib/gcc/arm-altera-eabi/6.2.0/../../../../arm-altera-eabi/lib\libc.a(lib_a-wcrtomb.o)
                              c:/intelfpga/18.0/embedded/host_tools/mentor/gnu/arm/baremetal/bin/../lib/gcc/arm-altera-eabi/6.2.0/../../../../arm-altera-eabi/lib\libc.a(lib_a-fputwc.o) (_wcrtomb_r)
c:/intelfpga/18.0/embedded/host_tools/mentor/gnu/arm/baremetal/bin/../lib/gcc/arm-altera-eabi/6.2.0\libgcc.a(_arm_addsubdf3.o)
                              c:/intelfpga/18.0/embedded/host_tools/mentor/gnu/arm/baremetal/bin/../lib/gcc/arm-altera-eabi/6.2.0/../../../../arm-altera-eabi/lib\libc.a(lib_a-dtoa.o) (__aeabi_dsub)
c:/intelfpga/18.0/embedded/host_tools/mentor/gnu/arm/baremetal/bin/../lib/gcc/arm-altera-eabi/6.2.0\libgcc.a(_arm_muldivdf3.o)
                              c:/intelfpga/18.0/embedded/host_tools/mentor/gnu/arm/baremetal/bin/../lib/gcc/arm-altera-eabi/6.2.0/../../../../arm-altera-eabi/lib\libc.a(lib_a-dtoa.o) (__aeabi_dmul)
c:/intelfpga/18.0/embedded/host_tools/mentor/gnu/arm/baremetal/bin/../lib/gcc/arm-altera-eabi/6.2.0\libgcc.a(_arm_cmpdf2.o)
                              c:/intelfpga/18.0/embedded/host_tools/mentor/gnu/arm/baremetal/bin/../lib/gcc/arm-altera-eabi/6.2.0/../../../../arm-altera-eabi/lib\libc.a(lib_a-svfprintf.o) (__aeabi_dcmpeq)
c:/intelfpga/18.0/embedded/host_tools/mentor/gnu/arm/baremetal/bin/../lib/gcc/arm-altera-eabi/6.2.0\libgcc.a(_arm_unorddf2.o)
                              c:/intelfpga/18.0/embedded/host_tools/mentor/gnu/arm/baremetal/bin/../lib/gcc/arm-altera-eabi/6.2.0/../../../../arm-altera-eabi/lib\libc.a(lib_a-svfprintf.o) (__aeabi_dcmpun)
c:/intelfpga/18.0/embedded/host_tools/mentor/gnu/arm/baremetal/bin/../lib/gcc/arm-altera-eabi/6.2.0\libgcc.a(_arm_fixdfsi.o)
                              c:/intelfpga/18.0/embedded/host_tools/mentor/gnu/arm/baremetal/bin/../lib/gcc/arm-altera-eabi/6.2.0/../../../../arm-altera-eabi/lib\libc.a(lib_a-dtoa.o) (__aeabi_d2iz)

Discarded input sections

 .text          0x00000000        0x0 c:/intelfpga/18.0/embedded/host_tools/mentor/gnu/arm/baremetal/bin/../lib/gcc/arm-altera-eabi/6.2.0/crti.o
 .data          0x00000000        0x0 c:/intelfpga/18.0/embedded/host_tools/mentor/gnu/arm/baremetal/bin/../lib/gcc/arm-altera-eabi/6.2.0/crti.o
 .bss           0x00000000        0x0 c:/intelfpga/18.0/embedded/host_tools/mentor/gnu/arm/baremetal/bin/../lib/gcc/arm-altera-eabi/6.2.0/crti.o
 .data          0x00000000        0x4 c:/intelfpga/18.0/embedded/host_tools/mentor/gnu/arm/baremetal/bin/../lib/gcc/arm-altera-eabi/6.2.0/crtbegin.o
 .text          0x00000000        0x0 Main_mAbassi.o
 .data          0x00000000        0x0 Main_mAbassi.o
 .bss           0x00000000        0x0 Main_mAbassi.o
 .text          0x00000000        0x0 MyApp_Web.o
 .data          0x00000000        0x0 MyApp_Web.o
 .bss           0x00000000        0x0 MyApp_Web.o
 .text.toogle_hps_led
                0x00000000       0x5c MyApp_Web.o
 .text          0x00000000        0x0 MyFatFS.o
 .data          0x00000000        0x0 MyFatFS.o
 .bss           0x00000000        0x0 MyFatFS.o
 .text.CleanRead
                0x00000000       0x5c MyFatFS.o
 .text.GPIOintHndl
                0x00000000        0x4 MyFatFS.o
 .text          0x00000000        0x0 SysCall_noFS.o
 .data          0x00000000        0x0 SysCall_noFS.o
 .bss           0x00000000        0x0 SysCall_noFS.o
 .text._close   0x00000000       0x18 SysCall_noFS.o
 .text._fstat   0x00000000       0x18 SysCall_noFS.o
 .text._isatty  0x00000000       0x1c SysCall_noFS.o
 .text._lseek   0x00000000       0x18 SysCall_noFS.o
 .text.mkdir    0x00000000       0x18 SysCall_noFS.o
 .text._open    0x00000000       0x18 SysCall_noFS.o
 .text._read    0x00000000       0x98 SysCall_noFS.o
 .text.rename   0x00000000       0x18 SysCall_noFS.o
 .text._stat    0x00000000       0x18 SysCall_noFS.o
 .text._unlink  0x00000000       0x18 SysCall_noFS.o
 .text._write   0x00000000       0x98 SysCall_noFS.o
 .text._open_r  0x00000000       0x10 SysCall_noFS.o
 .text._rename_r
                0x00000000       0x10 SysCall_noFS.o
 .text._unlink_r
                0x00000000       0x10 SysCall_noFS.o
 .text.dup      0x00000000       0x18 SysCall_noFS.o
 .text.getcwd   0x00000000       0x18 SysCall_noFS.o
 .text.chdir    0x00000000       0x18 SysCall_noFS.o
 .text._mkdir_r
                0x00000000       0x10 SysCall_noFS.o
 .text._stat_r  0x00000000       0x10 SysCall_noFS.o
 .text.fstatfs  0x00000000       0x18 SysCall_noFS.o
 .text.statfs   0x00000000       0x18 SysCall_noFS.o
 .text.chown    0x00000000        0x8 SysCall_noFS.o
 .text.umask    0x00000000       0x18 SysCall_noFS.o
 .text.chmod    0x00000000       0x18 SysCall_noFS.o
 .text.mount    0x00000000       0x18 SysCall_noFS.o
 .text.unmount  0x00000000       0x18 SysCall_noFS.o
 .text.mkfs     0x00000000       0x18 SysCall_noFS.o
 .text.opendir  0x00000000       0x18 SysCall_noFS.o
 .text.closedir
                0x00000000       0x18 SysCall_noFS.o
 .text.readdir  0x00000000       0x18 SysCall_noFS.o
 .text.telldir  0x00000000       0x18 SysCall_noFS.o
 .text.seekdir  0x00000000        0x4 SysCall_noFS.o
 .text.rewinddir
                0x00000000        0x4 SysCall_noFS.o
 .text.devctl   0x00000000        0x8 SysCall_noFS.o
 .text.GetKey   0x00000000       0x3c SysCall_noFS.o
 .text          0x00000000        0x0 TIMERinit.o
 .data          0x00000000        0x0 TIMERinit.o
 .bss           0x00000000        0x0 TIMERinit.o
 .text          0x00000000        0x0 CGI_SSI.o
 .data          0x00000000        0x0 CGI_SSI.o
 .bss           0x00000000        0x0 CGI_SSI.o
 .text.LCD_POST_Handler
                0x00000000        0x8 CGI_SSI.o
 .text.RTC_POST_Handler
                0x00000000        0x8 CGI_SSI.o
 .text.ADCupdate
                0x00000000        0x4 CGI_SSI.o
 .text.MAX1619update
                0x00000000        0x4 CGI_SSI.o
 .text.RTCupdate
                0x00000000        0x4 CGI_SSI.o
 .text.SwitchUpdate
                0x00000000        0x4 CGI_SSI.o
 .text.LCDputs  0x00000000        0x4 CGI_SSI.o
 .text.MAX1619init
                0x00000000        0x8 CGI_SSI.o
 .text.XL345init
                0x00000000       0xb0 CGI_SSI.o
 .text          0x00000000        0x0 NetAddr.o
 .data          0x00000000        0x0 NetAddr.o
 .bss           0x00000000        0x0 NetAddr.o
 .text.PrtAddr  0x00000000       0x38 NetAddr.o
 .text          0x00000000        0x0 WebServer.o
 .data          0x00000000        0x0 WebServer.o
 .bss           0x00000000        0x0 WebServer.o
 .text.POSTnewHandler
                0x00000000       0x5c WebServer.o
 .text.SSIgetPtrVar
                0x00000000       0xb8 WebServer.o
 .text.SSIgetVar
                0x00000000       0xc0 WebServer.o
 .bss.g_UpTime  0x00000000        0xa WebServer.o
 .text          0x00000000        0x0 httpserver-netconn.o
 .data          0x00000000        0x0 httpserver-netconn.o
 .bss           0x00000000        0x0 httpserver-netconn.o
 .text          0x00000000        0x0 arm_acp.o
 .data          0x00000000        0x0 arm_acp.o
 .bss           0x00000000        0x0 arm_acp.o
 .text.acp_enable
                0x00000000      0x134 arm_acp.o
 .text          0x00000000        0x0 arm_pl330.o
 .data          0x00000000        0x0 arm_pl330.o
 .bss           0x00000000        0x0 arm_pl330.o
 .text.DMAasm   0x00000000      0x288 arm_pl330.o
 .text.dma_start_X.constprop.9
                0x00000000      0x1e0 arm_pl330.o
 .text.dma_cleanup.part.0.constprop.10
                0x00000000      0x528 arm_pl330.o
 .text.dma_kill_X
                0x00000000      0x270 arm_pl330.o
 .text.dma_done
                0x00000000      0x124 arm_pl330.o
 .text.dma_event
                0x00000000       0xf8 arm_pl330.o
 .text.dma_kill
                0x00000000       0x2c arm_pl330.o
 .text.dma_pend_trig
                0x00000000      0x148 arm_pl330.o
 .text.dma_release
                0x00000000       0xd8 arm_pl330.o
 .text.dma_start
                0x00000000      0x1ac arm_pl330.o
 .text.dma_state
                0x00000000      0x1b0 arm_pl330.o
 .text.dma_wait
                0x00000000      0x45c arm_pl330.o
 .text.dma_xfer
                0x00000000     0x1c64 arm_pl330.o
 .text.DMAintHndl
                0x00000000      0x1a0 arm_pl330.o
 .rodata.dma_state.str1.4
                0x00000000       0xf2 arm_pl330.o
 .text          0x00000000        0x0 alt_gpio.o
 .data          0x00000000        0x0 alt_gpio.o
 .bss           0x00000000        0x0 alt_gpio.o
 .text.gpio_cfg
                0x00000000      0x1ec alt_gpio.o
 .text.GPIOintHndl_0
                0x00000000       0x3c alt_gpio.o
 .text.GPIOintHndl_1
                0x00000000       0x3c alt_gpio.o
 .text.GPIOintHndl_2
                0x00000000       0x3c alt_gpio.o
 .text          0x00000000        0x0 dw_ethernet.o
 .data          0x00000000        0x0 dw_ethernet.o
 .bss           0x00000000        0x0 dw_ethernet.o
 .text.ETH_MACAddressGet
                0x00000000       0x4c dw_ethernet.o
 .text.ETH_Prepare_Transmit_Descriptors
                0x00000000       0xfc dw_ethernet.o
 .text.ETH_Stop
                0x00000000       0x74 dw_ethernet.o
 .text.ETH_PowerDown
                0x00000000      0x164 dw_ethernet.o
 .text.mETH_PowerDown
                0x00000000      0x164 dw_ethernet.o
 .text.ETH_PowerUp
                0x00000000      0x164 dw_ethernet.o
 .text.mETH_PowerUp
                0x00000000      0x164 dw_ethernet.o
 .text.ETH_RestartNegotiation
                0x00000000      0x150 dw_ethernet.o
 .text.mETH_RestartNegotiation
                0x00000000      0x150 dw_ethernet.o
 .text.ETH_DMArxRestart
                0x00000000       0x4c dw_ethernet.o
 .text.ETH_DMAtxRestart
                0x00000000       0x4c dw_ethernet.o
 .text.ETH_TXdisable
                0x00000000       0x1c dw_ethernet.o
 .text.ETH_TXenable
                0x00000000       0x1c dw_ethernet.o
 .text.ETH_RXdisable
                0x00000000       0x1c dw_ethernet.o
 .text.ETH_RXenable
                0x00000000       0x1c dw_ethernet.o
 .text.ETH_FlowControlStatus
                0x00000000       0x18 dw_ethernet.o
 .text.ETH_PauseCtrlFrame
                0x00000000       0x1c dw_ethernet.o
 .text.ETH_BackPressureDisable
                0x00000000       0x1c dw_ethernet.o
 .text.ETH_BackPressureEnable
                0x00000000       0x1c dw_ethernet.o
 .text.ETH_IRQget
                0x00000000       0x14 dw_ethernet.o
 .text.ETH_IRQclr
                0x00000000       0x1c dw_ethernet.o
 .text.ETH_IRQset
                0x00000000       0x1c dw_ethernet.o
 .text.ETH_DMAgetSWR
                0x00000000       0x1c dw_ethernet.o
 .text.ETH_DMAisrDisable
                0x00000000       0x20 dw_ethernet.o
 .text.ETH_DMAisrEnable
                0x00000000       0x20 dw_ethernet.o
 .text.ETH_DMAgetIRQstatus
                0x00000000       0x18 dw_ethernet.o
 .text.ETH_DMAclrIRQstatus
                0x00000000       0x18 dw_ethernet.o
 .text.ETH_DMAclrPendIRQ
                0x00000000       0x20 dw_ethernet.o
 .text.ETH_DMAgetTXstate
                0x00000000       0x1c dw_ethernet.o
 .text.ETH_DMAflushTX
                0x00000000       0x20 dw_ethernet.o
 .text.ETH_DMAgetFlushTXstatux
                0x00000000       0x1c dw_ethernet.o
 .text.ETH_DMAtxDisable
                0x00000000       0x20 dw_ethernet.o
 .text.ETH_DMAtxEnable
                0x00000000       0x20 dw_ethernet.o
 .text.ETH_DMArxDisable
                0x00000000       0x20 dw_ethernet.o
 .text.ETH_DMArxEnable
                0x00000000       0x20 dw_ethernet.o
 .text.ETH_DMAoverflowStat
                0x00000000       0x1c dw_ethernet.o
 .text.ETH_MMCchksumDisable
                0x00000000       0x1c dw_ethernet.o
 .text.ETH_MMCchksumEnable
                0x00000000       0x1c dw_ethernet.o
 .text.ETH_MMCchksumStat
                0x00000000       0x14 dw_ethernet.o
 .text.ETH_MMCrxDisable
                0x00000000       0x1c dw_ethernet.o
 .text.ETH_MMCrxEnable
                0x00000000       0x1c dw_ethernet.o
 .text.ETH_MMCrxStat
                0x00000000       0x14 dw_ethernet.o
 .text.ETH_MMCtxDisable
                0x00000000       0x1c dw_ethernet.o
 .text.ETH_MMCtxEnable
                0x00000000       0x1c dw_ethernet.o
 .text.ETH_MMCtxStat
                0x00000000       0x14 dw_ethernet.o
 .text.mETH_LinkStatus
                0x00000000       0xd8 dw_ethernet.o
 .text.ETH_ResetEMACs
                0x00000000       0x18 dw_ethernet.o
 .text          0x00000000        0x0 dw_i2c.o
 .data          0x00000000        0x0 dw_i2c.o
 .bss           0x00000000        0x0 dw_i2c.o
 .text.I2CintHndl
                0x00000000      0x328 dw_i2c.o
 .text.i2c_recv
                0x00000000      0x66c dw_i2c.o
 .text.i2c_test
                0x00000000      0x1c8 dw_i2c.o
 .text.I2CintHndl_0
                0x00000000        0x8 dw_i2c.o
 .text.I2CintHndl_1
                0x00000000        0x8 dw_i2c.o
 .text.I2CintHndl_2
                0x00000000        0x8 dw_i2c.o
 .text.I2CintHndl_3
                0x00000000        0x8 dw_i2c.o
 .text          0x00000000        0x0 dw_uart.o
 .data          0x00000000        0x0 dw_uart.o
 .bss           0x00000000        0x0 dw_uart.o
 .text.uart_filt
                0x00000000       0x90 dw_uart.o
 .text          0x00000000        0x0 dw_sdmmc.o
 .data          0x00000000        0x0 dw_sdmmc.o
 .bss           0x00000000        0x0 dw_sdmmc.o
 .text.mmc_sendcmd
                0x00000000      0x4f0 dw_sdmmc.o
 .text.mmc_present
                0x00000000       0x1c dw_sdmmc.o
 .text.mmc_nowrt
                0x00000000       0x18 dw_sdmmc.o
 .text.MMCintHndl
                0x00000000       0xa8 dw_sdmmc.o
 .text          0x00000000        0x0 alt_generalpurpose_io.o
 .data          0x00000000        0x0 alt_generalpurpose_io.o
 .bss           0x00000000        0x0 alt_generalpurpose_io.o
 .text.alt_gpio_uninit
                0x00000000       0x1c alt_generalpurpose_io.o
 .text.alt_gpio_port_datadir_set
                0x00000000       0x70 alt_generalpurpose_io.o
 .text.alt_gpio_port_datadir_get
                0x00000000       0x48 alt_generalpurpose_io.o
 .text.alt_gpio_port_data_write
                0x00000000       0x70 alt_generalpurpose_io.o
 .text.alt_gpio_port_data_read
                0x00000000       0x48 alt_generalpurpose_io.o
 .text.alt_gpio_port_int_type_set
                0x00000000       0x70 alt_generalpurpose_io.o
 .text.alt_gpio_port_int_type_get
                0x00000000       0x48 alt_generalpurpose_io.o
 .text.alt_gpio_port_int_pol_set
                0x00000000       0x70 alt_generalpurpose_io.o
 .text.alt_gpio_port_int_pol_get
                0x00000000       0x48 alt_generalpurpose_io.o
 .text.alt_gpio_port_debounce_set
                0x00000000       0x70 alt_generalpurpose_io.o
 .text.alt_gpio_port_debounce_get
                0x00000000       0x48 alt_generalpurpose_io.o
 .text.alt_gpio_port_sync_set
                0x00000000       0x54 alt_generalpurpose_io.o
 .text.alt_gpio_port_sync_get
                0x00000000       0x50 alt_generalpurpose_io.o
 .text.alt_gpio_port_config
                0x00000000      0x20c alt_generalpurpose_io.o
 .text.alt_gpio_port_int_enable
                0x00000000       0x64 alt_generalpurpose_io.o
 .text.alt_gpio_port_int_disable
                0x00000000       0x64 alt_generalpurpose_io.o
 .text.alt_gpio_port_int_enable_get
                0x00000000       0x48 alt_generalpurpose_io.o
 .text.alt_gpio_port_int_mask_set
                0x00000000       0x70 alt_generalpurpose_io.o
 .text.alt_gpio_port_int_mask_get
                0x00000000       0x48 alt_generalpurpose_io.o
 .text.alt_gpio_port_int_status_get
                0x00000000       0x48 alt_generalpurpose_io.o
 .text.alt_gpio_port_int_status_clear
                0x00000000       0x5c alt_generalpurpose_io.o
 .text.alt_gpio_port_idcode_get
                0x00000000       0x48 alt_generalpurpose_io.o
 .text.alt_gpio_port_ver_get
                0x00000000       0x48 alt_generalpurpose_io.o
 .text.alt_gpio_bit_config
                0x00000000      0x258 alt_generalpurpose_io.o
 .text.alt_gpio_bitconfig_get
                0x00000000      0x180 alt_generalpurpose_io.o
 .text.alt_gpio_group_config_get
                0x00000000      0x1d8 alt_generalpurpose_io.o
 .text.alt_gpio_group_config_get2
                0x00000000      0x21c alt_generalpurpose_io.o
 .text.alt_gpio_bit_to_pid
                0x00000000       0x30 alt_generalpurpose_io.o
 .text.alt_gpio_bit_to_port_pin
                0x00000000       0x30 alt_generalpurpose_io.o
 .text.alt_gpio_port_pin_to_bit
                0x00000000       0x50 alt_generalpurpose_io.o
 .text          0x00000000        0x0 api_lib.o
 .data          0x00000000        0x0 api_lib.o
 .bss           0x00000000        0x0 api_lib.o
 .text.netconn_getaddr
                0x00000000       0x54 api_lib.o
 .text.netconn_connect
                0x00000000       0x50 api_lib.o
 .text.netconn_disconnect
                0x00000000       0x44 api_lib.o
 .text.netconn_recv_tcp_pbuf
                0x00000000      0x160 api_lib.o
 .text.netconn_recved
                0x00000000       0x50 api_lib.o
 .text.netconn_sendto
                0x00000000       0x6c api_lib.o
 .text.netconn_send
                0x00000000       0x4c api_lib.o
 .text.netconn_shutdown
                0x00000000       0x64 api_lib.o
 .text          0x00000000        0x0 api_msg.o
 .data          0x00000000        0x0 api_msg.o
 .bss           0x00000000        0x0 api_msg.o
 .text.do_connected
                0x00000000      0x104 api_msg.o
 .text.do_connect
                0x00000000      0x160 api_msg.o
 .text.do_disconnect
                0x00000000       0x4c api_msg.o
 .text.do_send  0x00000000       0xf4 api_msg.o
 .text.do_getaddr
                0x00000000      0x114 api_msg.o
 .text          0x00000000        0x0 autoip.o
 .data          0x00000000        0x0 autoip.o
 .bss           0x00000000        0x0 autoip.o
 .text          0x00000000        0x0 def.o
 .data          0x00000000        0x0 def.o
 .bss           0x00000000        0x0 def.o
 .text          0x00000000        0x0 dhcp.o
 .data          0x00000000        0x0 dhcp.o
 .bss           0x00000000        0x0 dhcp.o
 .text.dhcp_set_struct
                0x00000000       0x24 dhcp.o
 .text.dhcp_cleanup
                0x00000000       0x28 dhcp.o
 .text.dhcp_inform
                0x00000000      0x168 dhcp.o
 .text.dhcp_network_changed
                0x00000000       0x7c dhcp.o
 .text          0x00000000        0x0 dns.o
 .data          0x00000000        0x0 dns.o
 .bss           0x00000000        0x0 dns.o
 .text          0x00000000        0x0 err.o
 .data          0x00000000        0x0 err.o
 .bss           0x00000000        0x0 err.o
 .text.lwip_strerr
                0x00000000       0x14 err.o
 .rodata.err_strerr
                0x00000000       0x40 err.o
 .rodata.str1.4
                0x00000000      0x127 err.o
 .text          0x00000000        0x0 etharp.o
 .data          0x00000000        0x0 etharp.o
 .bss           0x00000000        0x0 etharp.o
 .text.etharp_find_addr
                0x00000000       0x6c etharp.o
 .text          0x00000000        0x0 ethernetif.o
 .data          0x00000000        0x0 ethernetif.o
 .bss           0x00000000        0x0 ethernetif.o
 .text.Emac2_IRQHandler
                0x00000000        0x8 ethernetif.o
 .text.Emac3_IRQHandler
                0x00000000        0x8 ethernetif.o
 .text.Emac4_IRQHandler
                0x00000000        0x8 ethernetif.o
 .text          0x00000000        0x0 icmp.o
 .data          0x00000000        0x0 icmp.o
 .bss           0x00000000        0x0 icmp.o
 .text          0x00000000        0x0 igmp.o
 .data          0x00000000        0x0 igmp.o
 .bss           0x00000000        0x0 igmp.o
 .text          0x00000000        0x0 inet.o
 .data          0x00000000        0x0 inet.o
 .bss           0x00000000        0x0 inet.o
 .text          0x00000000        0x0 inet_chksum.o
 .data          0x00000000        0x0 inet_chksum.o
 .bss           0x00000000        0x0 inet_chksum.o
 .text.inet_chksum_pseudo
                0x00000000      0x38c inet_chksum.o
 .text.inet_chksum_pseudo_partial
                0x00000000      0x3cc inet_chksum.o
 .text          0x00000000        0x0 init.o
 .data          0x00000000        0x0 init.o
 .bss           0x00000000        0x0 init.o
 .text          0x00000000        0x0 ip.o
 .data          0x00000000        0x0 ip.o
 .bss           0x00000000        0x0 ip.o
 .text          0x00000000        0x0 ip_addr.o
 .data          0x00000000        0x0 ip_addr.o
 .bss           0x00000000        0x0 ip_addr.o
 .text.ip4_addr_netmask_valid
                0x00000000       0x50 ip_addr.o
 .text.ipaddr_aton
                0x00000000      0x200 ip_addr.o
 .text.ipaddr_addr
                0x00000000       0x24 ip_addr.o
 .text.ipaddr_ntoa
                0x00000000      0x144 ip_addr.o
 .text.ipaddr_ntoa_r
                0x00000000      0x13c ip_addr.o
 .bss.str.7760  0x00000000       0x10 ip_addr.o
 .text          0x00000000        0x0 ip_frag.o
 .data          0x00000000        0x0 ip_frag.o
 .bss           0x00000000        0x0 ip_frag.o
 .text          0x00000000        0x0 mem.o
 .data          0x00000000        0x0 mem.o
 .bss           0x00000000        0x0 mem.o
 .text.mem_calloc
                0x00000000       0x2c mem.o
 .text          0x00000000        0x0 memp.o
 .data          0x00000000        0x0 memp.o
 .bss           0x00000000        0x0 memp.o
 .text          0x00000000        0x0 netbuf.o
 .data          0x00000000        0x0 netbuf.o
 .bss           0x00000000        0x0 netbuf.o
 .text.netbuf_new
                0x00000000       0x28 netbuf.o
 .text.netbuf_alloc
                0x00000000       0x40 netbuf.o
 .text.netbuf_free
                0x00000000       0x28 netbuf.o
 .text.netbuf_ref
                0x00000000       0x5c netbuf.o
 .text.netbuf_chain
                0x00000000       0x30 netbuf.o
 .text.netbuf_data
                0x00000000       0x2c netbuf.o
 .text.netbuf_next
                0x00000000       0x24 netbuf.o
 .text.netbuf_first
                0x00000000        0xc netbuf.o
 .text          0x00000000        0x0 netdb.o
 .data          0x00000000        0x0 netdb.o
 .bss           0x00000000        0x0 netdb.o
 .text          0x00000000        0x0 netif.o
 .data          0x00000000        0x0 netif.o
 .bss           0x00000000        0x0 netif.o
 .text.netif_remove
                0x00000000       0xa0 netif.o
 .text.netif_find
                0x00000000       0x7c netif.o
 .text.netif_set_link_up
                0x00000000       0x4c netif.o
 .text.netif_set_link_down
                0x00000000       0x14 netif.o
 .text          0x00000000        0x0 netifapi.o
 .data          0x00000000        0x0 netifapi.o
 .bss           0x00000000        0x0 netifapi.o
 .text          0x00000000        0x0 pbuf.o
 .data          0x00000000        0x0 pbuf.o
 .bss           0x00000000        0x0 pbuf.o
 .text.pbuf_dechain
                0x00000000       0xdc pbuf.o
 .text.pbuf_take
                0x00000000       0x80 pbuf.o
 .text.pbuf_coalesce
                0x00000000      0x1c0 pbuf.o
 .text.pbuf_get_at
                0x00000000       0x40 pbuf.o
 .text.pbuf_memcmp
                0x00000000       0xd8 pbuf.o
 .text.pbuf_memfind
                0x00000000       0xfc pbuf.o
 .text.pbuf_strstr
                0x00000000       0x68 pbuf.o
 .text          0x00000000        0x0 raw.o
 .data          0x00000000        0x0 raw.o
 .bss           0x00000000        0x0 raw.o
 .text.raw_connect
                0x00000000       0x14 raw.o
 .text.raw_sendto
                0x00000000      0x130 raw.o
 .text.raw_send
                0x00000000      0x130 raw.o
 .text          0x00000000        0x0 stats.o
 .data          0x00000000        0x0 stats.o
 .bss           0x00000000        0x0 stats.o
 .text          0x00000000        0x0 sys.o
 .data          0x00000000        0x0 sys.o
 .bss           0x00000000        0x0 sys.o
 .text.sys_msleep
                0x00000000       0x48 sys.o
 .text          0x00000000        0x0 sys_arch.o
 .data          0x00000000        0x0 sys_arch.o
 .bss           0x00000000        0x0 sys_arch.o
 .text.LWIP_NETCONN_THREAD_SEM_GET
                0x00000000      0x200 sys_arch.o
 .text.sys_mutex_free
                0x00000000      0x1bc sys_arch.o
 .text.sys_assert
                0x00000000       0x10 sys_arch.o
 .text.sys_now  0x00000000       0x18 sys_arch.o
 .bss.sem.7694  0x00000000        0x4 sys_arch.o
 .text          0x00000000        0x0 sockets.o
 .data          0x00000000        0x0 sockets.o
 .bss           0x00000000        0x0 sockets.o
 .text          0x00000000        0x0 tcp.o
 .data          0x00000000        0x0 tcp.o
 .bss           0x00000000        0x0 tcp.o
 .text.tcp_connect
                0x00000000      0x27c tcp.o
 .text.tcp_fasttmr
                0x00000000       0xb0 tcp.o
 .text.tcp_setprio
                0x00000000        0x8 tcp.o
 .text.tcp_next_iss
                0x00000000       0x24 tcp.o
 .text.tcp_debug_state_str
                0x00000000       0x10 tcp.o
 .rodata.str1.4
                0x00000000       0x76 tcp.o
 .rodata.tcp_state_str
                0x00000000       0x2c tcp.o
 .text          0x00000000        0x0 tcp_in.o
 .data          0x00000000        0x0 tcp_in.o
 .bss           0x00000000        0x0 tcp_in.o
 .text          0x00000000        0x0 tcp_out.o
 .data          0x00000000        0x0 tcp_out.o
 .bss           0x00000000        0x0 tcp_out.o
 .text          0x00000000        0x0 tcpip.o
 .data          0x00000000        0x0 tcpip.o
 .bss           0x00000000        0x0 tcpip.o
 .text.pbuf_free_int
                0x00000000        0x4 tcpip.o
 .text.tcpip_timeout
                0x00000000       0x6c tcpip.o
 .text.tcpip_untimeout
                0x00000000       0x60 tcpip.o
 .text.tcpip_callbackmsg_new
                0x00000000       0x2c tcpip.o
 .text.tcpip_callbackmsg_delete
                0x00000000        0xc tcpip.o
 .text.tcpip_trycallback
                0x00000000       0x28 tcpip.o
 .text.pbuf_free_callback
                0x00000000       0x7c tcpip.o
 .text.mem_free_callback
                0x00000000       0x7c tcpip.o
 .text          0x00000000        0x0 timers.o
 .data          0x00000000        0x0 timers.o
 .bss           0x00000000        0x0 timers.o
 .text          0x00000000        0x0 udp.o
 .data          0x00000000        0x0 udp.o
 .bss           0x00000000        0x0 udp.o
 .text.udp_send
                0x00000000      0x17c udp.o
 .text.udp_sendto
                0x00000000      0x17c udp.o
 .text.udp_disconnect
                0x00000000       0x1c udp.o
 .text          0x00000000        0x0 Abassi_FatFS.o
 .data          0x00000000        0x0 Abassi_FatFS.o
 .bss           0x00000000        0x0 Abassi_FatFS.o
 .text          0x00000000        0x0 Media_FatFS.o
 .data          0x00000000        0x0 Media_FatFS.o
 .bss           0x00000000        0x0 Media_FatFS.o
 .text.media_uninit_FatFS
                0x00000000       0x14 Media_FatFS.o
 .text.media_size_FatFS
                0x00000000       0x10 Media_FatFS.o
 .text.media_blksize_FatFS
                0x00000000        0x4 Media_FatFS.o
 .text.media_sectsize_FatFS
                0x00000000        0x8 Media_FatFS.o
 .text.media_info_FatFS
                0x00000000        0x4 Media_FatFS.o
 .text          0x00000000        0x0 MediaIF.o
 .data          0x00000000        0x0 MediaIF.o
 .bss           0x00000000        0x0 MediaIF.o
 .text          0x00000000        0x0 SysCall_CY5.o
 .data          0x00000000        0x0 SysCall_CY5.o
 .bss           0x00000000        0x0 SysCall_CY5.o
 .text.time     0x00000000       0x30 SysCall_CY5.o
 .text._gettimeofday
                0x00000000        0x8 SysCall_CY5.o
 .text          0x00000000        0x0 ff.o
 .data          0x00000000        0x0 ff.o
 .bss           0x00000000        0x0 ff.o
 .text.pattern_matching
                0x00000000      0x158 ff.o
 .text.dir_read
                0x00000000      0x76c ff.o
 .text.f_sync   0x00000000      0x4a8 ff.o
 .text.f_lseek  0x00000000      0x550 ff.o
 .text.f_closedir
                0x00000000      0x10c ff.o
 .text.f_findnext
                0x00000000      0x114 ff.o
 .text.f_findfirst
                0x00000000      0x52c ff.o
 .text.f_truncate
                0x00000000      0x20c ff.o
 .text.f_utime  0x00000000      0x170 ff.o
 .text.f_getlabel
                0x00000000      0x42c ff.o
 .text.f_setlabel
                0x00000000      0x434 ff.o
 .text.f_expand
                0x00000000      0x694 ff.o
 .text.f_gets   0x00000000      0x410 ff.o
 .text.f_putc   0x00000000      0x144 ff.o
 .text.f_puts   0x00000000      0x144 ff.o
 .text.f_printf
                0x00000000      0x97c ff.o
 .rodata.badchr.8518
                0x00000000       0x10 ff.o
 .text          0x00000000        0x0 ffunicode.o
 .data          0x00000000        0x0 ffunicode.o
 .bss           0x00000000        0x0 ffunicode.o
 .text          0x00000000        0x0 fs.o
 .data          0x00000000        0x0 fs.o
 .bss           0x00000000        0x0 fs.o
 .text.fs_bytes_left
                0x00000000       0x10 fs.o
 .text          0x00000000        0x0 mAbassiCfgA9.o
 .data          0x00000000        0x0 mAbassiCfgA9.o
 .bss           0x00000000        0x0 mAbassiCfgA9.o
 .text          0x00000000        0x0 ../../mAbassi/Platform/lib\lib_mAbassi_EVAL_R_GCC_AR5_CY5.a(mAbassi_EVAL_A9_GCC_2.o)
 .data          0x00000000        0x0 ../../mAbassi/Platform/lib\lib_mAbassi_EVAL_R_GCC_AR5_CY5.a(mAbassi_EVAL_A9_GCC_2.o)
 .bss           0x00000000        0x0 ../../mAbassi/Platform/lib\lib_mAbassi_EVAL_R_GCC_AR5_CY5.a(mAbassi_EVAL_A9_GCC_2.o)
 .text.__generic_gxx_active_p
                0x00000000       0x18 ../../mAbassi/Platform/lib\lib_mAbassi_EVAL_R_GCC_AR5_CY5.a(mAbassi_EVAL_A9_GCC_2.o)
 .text.__generic_gxx_once
                0x00000000        0x8 ../../mAbassi/Platform/lib\lib_mAbassi_EVAL_R_GCC_AR5_CY5.a(mAbassi_EVAL_A9_GCC_2.o)
 .text.__generic_gxx_key_create
                0x00000000        0x8 ../../mAbassi/Platform/lib\lib_mAbassi_EVAL_R_GCC_AR5_CY5.a(mAbassi_EVAL_A9_GCC_2.o)
 .text.__generic_gxx_key_delete
                0x00000000        0x8 ../../mAbassi/Platform/lib\lib_mAbassi_EVAL_R_GCC_AR5_CY5.a(mAbassi_EVAL_A9_GCC_2.o)
 .text.__generic_gxx_setspecific
                0x00000000        0x8 ../../mAbassi/Platform/lib\lib_mAbassi_EVAL_R_GCC_AR5_CY5.a(mAbassi_EVAL_A9_GCC_2.o)
 .text.TIMopen  0x00000000      0x11c ../../mAbassi/Platform/lib\lib_mAbassi_EVAL_R_GCC_AR5_CY5.a(mAbassi_EVAL_A9_GCC_2.o)
 .text.MBLK__open
                0x00000000      0x198 ../../mAbassi/Platform/lib\lib_mAbassi_EVAL_R_GCC_AR5_CY5.a(mAbassi_EVAL_A9_GCC_2.o)
 .text.MBLKalloc
                0x00000000       0x7c ../../mAbassi/Platform/lib\lib_mAbassi_EVAL_R_GCC_AR5_CY5.a(mAbassi_EVAL_A9_GCC_2.o)
 .text.GroupAdd
                0x00000000       0xf8 ../../mAbassi/Platform/lib\lib_mAbassi_EVAL_R_GCC_AR5_CY5.a(mAbassi_EVAL_A9_GCC_2.o)
 .text.GroupRm  0x00000000       0xb4 ../../mAbassi/Platform/lib\lib_mAbassi_EVAL_R_GCC_AR5_CY5.a(mAbassi_EVAL_A9_GCC_2.o)
 .text.GRPwait  0x00000000       0xa0 ../../mAbassi/Platform/lib\lib_mAbassi_EVAL_R_GCC_AR5_CY5.a(mAbassi_EVAL_A9_GCC_2.o)
 .text.__env_lock
                0x00000000       0x44 ../../mAbassi/Platform/lib\lib_mAbassi_EVAL_R_GCC_AR5_CY5.a(mAbassi_EVAL_A9_GCC_2.o)
 .text.__env_unlock
                0x00000000       0x2c ../../mAbassi/Platform/lib\lib_mAbassi_EVAL_R_GCC_AR5_CY5.a(mAbassi_EVAL_A9_GCC_2.o)
 .text.__tz_lock
                0x00000000       0x44 ../../mAbassi/Platform/lib\lib_mAbassi_EVAL_R_GCC_AR5_CY5.a(mAbassi_EVAL_A9_GCC_2.o)
 .text.__tz_unlock
                0x00000000       0x2c ../../mAbassi/Platform/lib\lib_mAbassi_EVAL_R_GCC_AR5_CY5.a(mAbassi_EVAL_A9_GCC_2.o)
 .text.__generic_gxx_recursive_mutex_trylock
                0x00000000       0xec ../../mAbassi/Platform/lib\lib_mAbassi_EVAL_R_GCC_AR5_CY5.a(mAbassi_EVAL_A9_GCC_2.o)
 .text.__generic_gxx_mutex_unlock
                0x00000000       0x3c ../../mAbassi/Platform/lib\lib_mAbassi_EVAL_R_GCC_AR5_CY5.a(mAbassi_EVAL_A9_GCC_2.o)
 .text.__generic_gxx_mutex_destroy
                0x00000000       0x78 ../../mAbassi/Platform/lib\lib_mAbassi_EVAL_R_GCC_AR5_CY5.a(mAbassi_EVAL_A9_GCC_2.o)
 .text.__generic_gxx_mutex_trylock
                0x00000000       0xec ../../mAbassi/Platform/lib\lib_mAbassi_EVAL_R_GCC_AR5_CY5.a(mAbassi_EVAL_A9_GCC_2.o)
 .text.__generic_gxx_mutex_init_function
                0x00000000      0x128 ../../mAbassi/Platform/lib\lib_mAbassi_EVAL_R_GCC_AR5_CY5.a(mAbassi_EVAL_A9_GCC_2.o)
 .text.__generic_gxx_mutex_lock
                0x00000000       0x2c ../../mAbassi/Platform/lib\lib_mAbassi_EVAL_R_GCC_AR5_CY5.a(mAbassi_EVAL_A9_GCC_2.o)
 .bss.g_MblkList
                0x00000000        0x4 ../../mAbassi/Platform/lib\lib_mAbassi_EVAL_R_GCC_AR5_CY5.a(mAbassi_EVAL_A9_GCC_2.o)
 .bss.g_TimerList
                0x00000000        0x4 ../../mAbassi/Platform/lib\lib_mAbassi_EVAL_R_GCC_AR5_CY5.a(mAbassi_EVAL_A9_GCC_2.o)
 .rodata.g_OSidleFct
                0x00000000        0x8 ../../mAbassi/Platform/lib\lib_mAbassi_EVAL_R_GCC_AR5_CY5.a(mAbassi_EVAL_A9_GCC_2.o)
 .data          0x00000000        0x0 ../../mAbassi/Platform/lib\lib_mAbassi_EVAL_R_GCC_AR5_CY5.a(ARMv7_SMP_L1_L2_GCC_AR5_CY5.o)
 .data          0x00000000        0x0 c:/intelfpga/18.0/embedded/host_tools/mentor/gnu/arm/baremetal/bin/../lib/gcc/arm-altera-eabi/6.2.0/../../../../arm-altera-eabi/lib\libcs3.a(start_c.o)
 .bss           0x00000000        0x0 c:/intelfpga/18.0/embedded/host_tools/mentor/gnu/arm/baremetal/bin/../lib/gcc/arm-altera-eabi/6.2.0/../../../../arm-altera-eabi/lib\libcs3.a(start_c.o)
 .text          0x00000000        0x0 c:/intelfpga/18.0/embedded/host_tools/mentor/gnu/arm/baremetal/bin/../lib/gcc/arm-altera-eabi/6.2.0/../../../../arm-altera-eabi/lib\libcs3unhosted.a(unhosted-start.o)
 .data          0x00000000        0x0 c:/intelfpga/18.0/embedded/host_tools/mentor/gnu/arm/baremetal/bin/../lib/gcc/arm-altera-eabi/6.2.0/../../../../arm-altera-eabi/lib\libcs3unhosted.a(unhosted-start.o)
 .bss           0x00000000        0x0 c:/intelfpga/18.0/embedded/host_tools/mentor/gnu/arm/baremetal/bin/../lib/gcc/arm-altera-eabi/6.2.0/../../../../arm-altera-eabi/lib\libcs3unhosted.a(unhosted-start.o)
 .data          0x00000000        0x0 c:/intelfpga/18.0/embedded/host_tools/mentor/gnu/arm/baremetal/bin/../lib/gcc/arm-altera-eabi/6.2.0\libgcc.a(_udivsi3.o)
 .bss           0x00000000        0x0 c:/intelfpga/18.0/embedded/host_tools/mentor/gnu/arm/baremetal/bin/../lib/gcc/arm-altera-eabi/6.2.0\libgcc.a(_udivsi3.o)
 .data          0x00000000        0x0 c:/intelfpga/18.0/embedded/host_tools/mentor/gnu/arm/baremetal/bin/../lib/gcc/arm-altera-eabi/6.2.0\libgcc.a(_divsi3.o)
 .bss           0x00000000        0x0 c:/intelfpga/18.0/embedded/host_tools/mentor/gnu/arm/baremetal/bin/../lib/gcc/arm-altera-eabi/6.2.0\libgcc.a(_divsi3.o)
 .data          0x00000000        0x0 c:/intelfpga/18.0/embedded/host_tools/mentor/gnu/arm/baremetal/bin/../lib/gcc/arm-altera-eabi/6.2.0\libgcc.a(_dvmd_tls.o)
 .bss           0x00000000        0x0 c:/intelfpga/18.0/embedded/host_tools/mentor/gnu/arm/baremetal/bin/../lib/gcc/arm-altera-eabi/6.2.0\libgcc.a(_dvmd_tls.o)
 .data          0x00000000        0x0 c:/intelfpga/18.0/embedded/host_tools/mentor/gnu/arm/baremetal/bin/../lib/gcc/arm-altera-eabi/6.2.0\libgcc.a(_aeabi_ldivmod.o)
 .bss           0x00000000        0x0 c:/intelfpga/18.0/embedded/host_tools/mentor/gnu/arm/baremetal/bin/../lib/gcc/arm-altera-eabi/6.2.0\libgcc.a(_aeabi_ldivmod.o)
 .data          0x00000000        0x0 c:/intelfpga/18.0/embedded/host_tools/mentor/gnu/arm/baremetal/bin/../lib/gcc/arm-altera-eabi/6.2.0\libgcc.a(_aeabi_uldivmod.o)
 .bss           0x00000000        0x0 c:/intelfpga/18.0/embedded/host_tools/mentor/gnu/arm/baremetal/bin/../lib/gcc/arm-altera-eabi/6.2.0\libgcc.a(_aeabi_uldivmod.o)
 .data          0x00000000        0x0 c:/intelfpga/18.0/embedded/host_tools/mentor/gnu/arm/baremetal/bin/../lib/gcc/arm-altera-eabi/6.2.0\libgcc.a(_udivmoddi4.o)
 .bss           0x00000000        0x0 c:/intelfpga/18.0/embedded/host_tools/mentor/gnu/arm/baremetal/bin/../lib/gcc/arm-altera-eabi/6.2.0\libgcc.a(_udivmoddi4.o)
 .ARM.extab     0x00000000        0x0 c:/intelfpga/18.0/embedded/host_tools/mentor/gnu/arm/baremetal/bin/../lib/gcc/arm-altera-eabi/6.2.0\libgcc.a(_udivmoddi4.o)
 .data          0x00000000        0x0 c:/intelfpga/18.0/embedded/host_tools/mentor/gnu/arm/baremetal/bin/../lib/gcc/arm-altera-eabi/6.2.0\libgcc.a(_clzdi2.o)
 .bss           0x00000000        0x0 c:/intelfpga/18.0/embedded/host_tools/mentor/gnu/arm/baremetal/bin/../lib/gcc/arm-altera-eabi/6.2.0\libgcc.a(_clzdi2.o)
 .data          0x00000000        0x0 c:/intelfpga/18.0/embedded/host_tools/mentor/gnu/arm/baremetal/bin/../lib/gcc/arm-altera-eabi/6.2.0\libgcc.a(_clzsi2.o)
 .bss           0x00000000        0x0 c:/intelfpga/18.0/embedded/host_tools/mentor/gnu/arm/baremetal/bin/../lib/gcc/arm-altera-eabi/6.2.0\libgcc.a(_clzsi2.o)
 .data          0x00000000        0x0 c:/intelfpga/18.0/embedded/host_tools/mentor/gnu/arm/baremetal/bin/../lib/gcc/arm-altera-eabi/6.2.0/../../../../arm-altera-eabi/lib\libc.a(lib_a-calloc.o)
 .bss           0x00000000        0x0 c:/intelfpga/18.0/embedded/host_tools/mentor/gnu/arm/baremetal/bin/../lib/gcc/arm-altera-eabi/6.2.0/../../../../arm-altera-eabi/lib\libc.a(lib_a-calloc.o)
 .data          0x00000000        0x0 c:/intelfpga/18.0/embedded/host_tools/mentor/gnu/arm/baremetal/bin/../lib/gcc/arm-altera-eabi/6.2.0/../../../../arm-altera-eabi/lib\libc.a(lib_a-callocr.o)
 .bss           0x00000000        0x0 c:/intelfpga/18.0/embedded/host_tools/mentor/gnu/arm/baremetal/bin/../lib/gcc/arm-altera-eabi/6.2.0/../../../../arm-altera-eabi/lib\libc.a(lib_a-callocr.o)
 .text          0x00000000       0x10 c:/intelfpga/18.0/embedded/host_tools/mentor/gnu/arm/baremetal/bin/../lib/gcc/arm-altera-eabi/6.2.0/../../../../arm-altera-eabi/lib\libc.a(lib_a-errno.o)
 .data          0x00000000        0x0 c:/intelfpga/18.0/embedded/host_tools/mentor/gnu/arm/baremetal/bin/../lib/gcc/arm-altera-eabi/6.2.0/../../../../arm-altera-eabi/lib\libc.a(lib_a-errno.o)
 .bss           0x00000000        0x0 c:/intelfpga/18.0/embedded/host_tools/mentor/gnu/arm/baremetal/bin/../lib/gcc/arm-altera-eabi/6.2.0/../../../../arm-altera-eabi/lib\libc.a(lib_a-errno.o)
 .data          0x00000000        0x0 c:/intelfpga/18.0/embedded/host_tools/mentor/gnu/arm/baremetal/bin/../lib/gcc/arm-altera-eabi/6.2.0/../../../../arm-altera-eabi/lib\libc.a(lib_a-fwrite.o)
 .bss           0x00000000        0x0 c:/intelfpga/18.0/embedded/host_tools/mentor/gnu/arm/baremetal/bin/../lib/gcc/arm-altera-eabi/6.2.0/../../../../arm-altera-eabi/lib\libc.a(lib_a-fwrite.o)
 .data          0x00000000        0x0 c:/intelfpga/18.0/embedded/host_tools/mentor/gnu/arm/baremetal/bin/../lib/gcc/arm-altera-eabi/6.2.0/../../../../arm-altera-eabi/lib\libc.a(lib_a-gets.o)
 .bss           0x00000000        0x0 c:/intelfpga/18.0/embedded/host_tools/mentor/gnu/arm/baremetal/bin/../lib/gcc/arm-altera-eabi/6.2.0/../../../../arm-altera-eabi/lib\libc.a(lib_a-gets.o)
 .text          0x00000000        0x0 c:/intelfpga/18.0/embedded/host_tools/mentor/gnu/arm/baremetal/bin/../lib/gcc/arm-altera-eabi/6.2.0/../../../../arm-altera-eabi/lib\libc.a(lib_a-impure.o)
 .bss           0x00000000        0x0 c:/intelfpga/18.0/embedded/host_tools/mentor/gnu/arm/baremetal/bin/../lib/gcc/arm-altera-eabi/6.2.0/../../../../arm-altera-eabi/lib\libc.a(lib_a-impure.o)
 .data          0x00000000        0x0 c:/intelfpga/18.0/embedded/host_tools/mentor/gnu/arm/baremetal/bin/../lib/gcc/arm-altera-eabi/6.2.0/../../../../arm-altera-eabi/lib\libc.a(lib_a-init.o)
 .bss           0x00000000        0x0 c:/intelfpga/18.0/embedded/host_tools/mentor/gnu/arm/baremetal/bin/../lib/gcc/arm-altera-eabi/6.2.0/../../../../arm-altera-eabi/lib\libc.a(lib_a-init.o)
 .data          0x00000000        0x0 c:/intelfpga/18.0/embedded/host_tools/mentor/gnu/arm/baremetal/bin/../lib/gcc/arm-altera-eabi/6.2.0/../../../../arm-altera-eabi/lib\libc.a(lib_a-malloc.o)
 .bss           0x00000000        0x0 c:/intelfpga/18.0/embedded/host_tools/mentor/gnu/arm/baremetal/bin/../lib/gcc/arm-altera-eabi/6.2.0/../../../../arm-altera-eabi/lib\libc.a(lib_a-malloc.o)
 .data          0x00000000        0x0 c:/intelfpga/18.0/embedded/host_tools/mentor/gnu/arm/baremetal/bin/../lib/gcc/arm-altera-eabi/6.2.0/../../../../arm-altera-eabi/lib\libc.a(lib_a-memcmp.o)
 .bss           0x00000000        0x0 c:/intelfpga/18.0/embedded/host_tools/mentor/gnu/arm/baremetal/bin/../lib/gcc/arm-altera-eabi/6.2.0/../../../../arm-altera-eabi/lib\libc.a(lib_a-memcmp.o)
 .data          0x00000000        0x0 c:/intelfpga/18.0/embedded/host_tools/mentor/gnu/arm/baremetal/bin/../lib/gcc/arm-altera-eabi/6.2.0/../../../../arm-altera-eabi/lib\libc.a(lib_a-memcpy-stub.o)
 .bss           0x00000000        0x0 c:/intelfpga/18.0/embedded/host_tools/mentor/gnu/arm/baremetal/bin/../lib/gcc/arm-altera-eabi/6.2.0/../../../../arm-altera-eabi/lib\libc.a(lib_a-memcpy-stub.o)
 .data          0x00000000        0x0 c:/intelfpga/18.0/embedded/host_tools/mentor/gnu/arm/baremetal/bin/../lib/gcc/arm-altera-eabi/6.2.0/../../../../arm-altera-eabi/lib\libc.a(lib_a-memmove.o)
 .bss           0x00000000        0x0 c:/intelfpga/18.0/embedded/host_tools/mentor/gnu/arm/baremetal/bin/../lib/gcc/arm-altera-eabi/6.2.0/../../../../arm-altera-eabi/lib\libc.a(lib_a-memmove.o)
 .data          0x00000000        0x0 c:/intelfpga/18.0/embedded/host_tools/mentor/gnu/arm/baremetal/bin/../lib/gcc/arm-altera-eabi/6.2.0/../../../../arm-altera-eabi/lib\libc.a(lib_a-memset.o)
 .bss           0x00000000        0x0 c:/intelfpga/18.0/embedded/host_tools/mentor/gnu/arm/baremetal/bin/../lib/gcc/arm-altera-eabi/6.2.0/../../../../arm-altera-eabi/lib\libc.a(lib_a-memset.o)
 .text          0x00000000      0x848 c:/intelfpga/18.0/embedded/host_tools/mentor/gnu/arm/baremetal/bin/../lib/gcc/arm-altera-eabi/6.2.0/../../../../arm-altera-eabi/lib\libc.a(lib_a-mktime.o)
 .data          0x00000000        0x0 c:/intelfpga/18.0/embedded/host_tools/mentor/gnu/arm/baremetal/bin/../lib/gcc/arm-altera-eabi/6.2.0/../../../../arm-altera-eabi/lib\libc.a(lib_a-mktime.o)
 .bss           0x00000000        0x0 c:/intelfpga/18.0/embedded/host_tools/mentor/gnu/arm/baremetal/bin/../lib/gcc/arm-altera-eabi/6.2.0/../../../../arm-altera-eabi/lib\libc.a(lib_a-mktime.o)
 .rodata        0x00000000       0x60 c:/intelfpga/18.0/embedded/host_tools/mentor/gnu/arm/baremetal/bin/../lib/gcc/arm-altera-eabi/6.2.0/../../../../arm-altera-eabi/lib\libc.a(lib_a-mktime.o)
 .data          0x00000000        0x0 c:/intelfpga/18.0/embedded/host_tools/mentor/gnu/arm/baremetal/bin/../lib/gcc/arm-altera-eabi/6.2.0/../../../../arm-altera-eabi/lib\libc.a(lib_a-printf.o)
 .bss           0x00000000        0x0 c:/intelfpga/18.0/embedded/host_tools/mentor/gnu/arm/baremetal/bin/../lib/gcc/arm-altera-eabi/6.2.0/../../../../arm-altera-eabi/lib\libc.a(lib_a-printf.o)
 .data          0x00000000        0x0 c:/intelfpga/18.0/embedded/host_tools/mentor/gnu/arm/baremetal/bin/../lib/gcc/arm-altera-eabi/6.2.0/../../../../arm-altera-eabi/lib\libc.a(lib_a-putchar.o)
 .bss           0x00000000        0x0 c:/intelfpga/18.0/embedded/host_tools/mentor/gnu/arm/baremetal/bin/../lib/gcc/arm-altera-eabi/6.2.0/../../../../arm-altera-eabi/lib\libc.a(lib_a-putchar.o)
 .data          0x00000000        0x0 c:/intelfpga/18.0/embedded/host_tools/mentor/gnu/arm/baremetal/bin/../lib/gcc/arm-altera-eabi/6.2.0/../../../../arm-altera-eabi/lib\libc.a(lib_a-puts.o)
 .bss           0x00000000        0x0 c:/intelfpga/18.0/embedded/host_tools/mentor/gnu/arm/baremetal/bin/../lib/gcc/arm-altera-eabi/6.2.0/../../../../arm-altera-eabi/lib\libc.a(lib_a-puts.o)
 .data          0x00000000        0x0 c:/intelfpga/18.0/embedded/host_tools/mentor/gnu/arm/baremetal/bin/../lib/gcc/arm-altera-eabi/6.2.0/../../../../arm-altera-eabi/lib\libc.a(lib_a-realloc.o)
 .bss           0x00000000        0x0 c:/intelfpga/18.0/embedded/host_tools/mentor/gnu/arm/baremetal/bin/../lib/gcc/arm-altera-eabi/6.2.0/../../../../arm-altera-eabi/lib\libc.a(lib_a-realloc.o)
 .data          0x00000000        0x0 c:/intelfpga/18.0/embedded/host_tools/mentor/gnu/arm/baremetal/bin/../lib/gcc/arm-altera-eabi/6.2.0/../../../../arm-altera-eabi/lib\libc.a(lib_a-reallocr.o)
 .bss           0x00000000        0x0 c:/intelfpga/18.0/embedded/host_tools/mentor/gnu/arm/baremetal/bin/../lib/gcc/arm-altera-eabi/6.2.0/../../../../arm-altera-eabi/lib\libc.a(lib_a-reallocr.o)
 .data          0x00000000        0x0 c:/intelfpga/18.0/embedded/host_tools/mentor/gnu/arm/baremetal/bin/../lib/gcc/arm-altera-eabi/6.2.0/../../../../arm-altera-eabi/lib\libc.a(lib_a-rget.o)
 .bss           0x00000000        0x0 c:/intelfpga/18.0/embedded/host_tools/mentor/gnu/arm/baremetal/bin/../lib/gcc/arm-altera-eabi/6.2.0/../../../../arm-altera-eabi/lib\libc.a(lib_a-rget.o)
 .data          0x00000000        0x0 c:/intelfpga/18.0/embedded/host_tools/mentor/gnu/arm/baremetal/bin/../lib/gcc/arm-altera-eabi/6.2.0/../../../../arm-altera-eabi/lib\libc.a(lib_a-setvbuf.o)
 .bss           0x00000000        0x0 c:/intelfpga/18.0/embedded/host_tools/mentor/gnu/arm/baremetal/bin/../lib/gcc/arm-altera-eabi/6.2.0/../../../../arm-altera-eabi/lib\libc.a(lib_a-setvbuf.o)
 .data          0x00000000        0x0 c:/intelfpga/18.0/embedded/host_tools/mentor/gnu/arm/baremetal/bin/../lib/gcc/arm-altera-eabi/6.2.0/../../../../arm-altera-eabi/lib\libc.a(lib_a-sprintf.o)
 .bss           0x00000000        0x0 c:/intelfpga/18.0/embedded/host_tools/mentor/gnu/arm/baremetal/bin/../lib/gcc/arm-altera-eabi/6.2.0/../../../../arm-altera-eabi/lib\libc.a(lib_a-sprintf.o)
 .data          0x00000000        0x0 c:/intelfpga/18.0/embedded/host_tools/mentor/gnu/arm/baremetal/bin/../lib/gcc/arm-altera-eabi/6.2.0/../../../../arm-altera-eabi/lib\libc.a(lib_a-stpcpy.o)
 .bss           0x00000000        0x0 c:/intelfpga/18.0/embedded/host_tools/mentor/gnu/arm/baremetal/bin/../lib/gcc/arm-altera-eabi/6.2.0/../../../../arm-altera-eabi/lib\libc.a(lib_a-stpcpy.o)
 .data          0x00000000        0x0 c:/intelfpga/18.0/embedded/host_tools/mentor/gnu/arm/baremetal/bin/../lib/gcc/arm-altera-eabi/6.2.0/../../../../arm-altera-eabi/lib\libc.a(lib_a-strchr.o)
 .bss           0x00000000        0x0 c:/intelfpga/18.0/embedded/host_tools/mentor/gnu/arm/baremetal/bin/../lib/gcc/arm-altera-eabi/6.2.0/../../../../arm-altera-eabi/lib\libc.a(lib_a-strchr.o)
 .data          0x00000000        0x0 c:/intelfpga/18.0/embedded/host_tools/mentor/gnu/arm/baremetal/bin/../lib/gcc/arm-altera-eabi/6.2.0/../../../../arm-altera-eabi/lib\libc.a(lib_a-strcmp.o)
 .bss           0x00000000        0x0 c:/intelfpga/18.0/embedded/host_tools/mentor/gnu/arm/baremetal/bin/../lib/gcc/arm-altera-eabi/6.2.0/../../../../arm-altera-eabi/lib\libc.a(lib_a-strcmp.o)
 .data          0x00000000        0x0 c:/intelfpga/18.0/embedded/host_tools/mentor/gnu/arm/baremetal/bin/../lib/gcc/arm-altera-eabi/6.2.0/../../../../arm-altera-eabi/lib\libc.a(lib_a-strcpy.o)
 .bss           0x00000000        0x0 c:/intelfpga/18.0/embedded/host_tools/mentor/gnu/arm/baremetal/bin/../lib/gcc/arm-altera-eabi/6.2.0/../../../../arm-altera-eabi/lib\libc.a(lib_a-strcpy.o)
 .data          0x00000000        0x0 c:/intelfpga/18.0/embedded/host_tools/mentor/gnu/arm/baremetal/bin/../lib/gcc/arm-altera-eabi/6.2.0/../../../../arm-altera-eabi/lib\libc.a(lib_a-strcspn.o)
 .bss           0x00000000        0x0 c:/intelfpga/18.0/embedded/host_tools/mentor/gnu/arm/baremetal/bin/../lib/gcc/arm-altera-eabi/6.2.0/../../../../arm-altera-eabi/lib\libc.a(lib_a-strcspn.o)
 .data          0x00000000        0x0 c:/intelfpga/18.0/embedded/host_tools/mentor/gnu/arm/baremetal/bin/../lib/gcc/arm-altera-eabi/6.2.0/../../../../arm-altera-eabi/lib\libc.a(lib_a-strlen-stub.o)
 .bss           0x00000000        0x0 c:/intelfpga/18.0/embedded/host_tools/mentor/gnu/arm/baremetal/bin/../lib/gcc/arm-altera-eabi/6.2.0/../../../../arm-altera-eabi/lib\libc.a(lib_a-strlen-stub.o)
 .data          0x00000000        0x0 c:/intelfpga/18.0/embedded/host_tools/mentor/gnu/arm/baremetal/bin/../lib/gcc/arm-altera-eabi/6.2.0/../../../../arm-altera-eabi/lib\libc.a(lib_a-strncmp.o)
 .bss           0x00000000        0x0 c:/intelfpga/18.0/embedded/host_tools/mentor/gnu/arm/baremetal/bin/../lib/gcc/arm-altera-eabi/6.2.0/../../../../arm-altera-eabi/lib\libc.a(lib_a-strncmp.o)
 .data          0x00000000        0x0 c:/intelfpga/18.0/embedded/host_tools/mentor/gnu/arm/baremetal/bin/../lib/gcc/arm-altera-eabi/6.2.0/../../../../arm-altera-eabi/lib\libc.a(lib_a-strncpy.o)
 .bss           0x00000000        0x0 c:/intelfpga/18.0/embedded/host_tools/mentor/gnu/arm/baremetal/bin/../lib/gcc/arm-altera-eabi/6.2.0/../../../../arm-altera-eabi/lib\libc.a(lib_a-strncpy.o)
 .data          0x00000000        0x0 c:/intelfpga/18.0/embedded/host_tools/mentor/gnu/arm/baremetal/bin/../lib/gcc/arm-altera-eabi/6.2.0/../../../../arm-altera-eabi/lib\libc.a(lib_a-strspn.o)
 .bss           0x00000000        0x0 c:/intelfpga/18.0/embedded/host_tools/mentor/gnu/arm/baremetal/bin/../lib/gcc/arm-altera-eabi/6.2.0/../../../../arm-altera-eabi/lib\libc.a(lib_a-strspn.o)
 .data          0x00000000        0x0 c:/intelfpga/18.0/embedded/host_tools/mentor/gnu/arm/baremetal/bin/../lib/gcc/arm-altera-eabi/6.2.0/../../../../arm-altera-eabi/lib\libc.a(lib_a-strstr.o)
 .bss           0x00000000        0x0 c:/intelfpga/18.0/embedded/host_tools/mentor/gnu/arm/baremetal/bin/../lib/gcc/arm-altera-eabi/6.2.0/../../../../arm-altera-eabi/lib\libc.a(lib_a-strstr.o)
 .data          0x00000000        0x0 c:/intelfpga/18.0/embedded/host_tools/mentor/gnu/arm/baremetal/bin/../lib/gcc/arm-altera-eabi/6.2.0/../../../../arm-altera-eabi/lib\libc.a(lib_a-strtol.o)
 .bss           0x00000000        0x0 c:/intelfpga/18.0/embedded/host_tools/mentor/gnu/arm/baremetal/bin/../lib/gcc/arm-altera-eabi/6.2.0/../../../../arm-altera-eabi/lib\libc.a(lib_a-strtol.o)
 .data          0x00000000        0x0 c:/intelfpga/18.0/embedded/host_tools/mentor/gnu/arm/baremetal/bin/../lib/gcc/arm-altera-eabi/6.2.0/../../../../arm-altera-eabi/lib\libc.a(lib_a-strtoul.o)
 .bss           0x00000000        0x0 c:/intelfpga/18.0/embedded/host_tools/mentor/gnu/arm/baremetal/bin/../lib/gcc/arm-altera-eabi/6.2.0/../../../../arm-altera-eabi/lib\libc.a(lib_a-strtoul.o)
 .data          0x00000000        0x0 c:/intelfpga/18.0/embedded/host_tools/mentor/gnu/arm/baremetal/bin/../lib/gcc/arm-altera-eabi/6.2.0/../../../../arm-altera-eabi/lib\libc.a(lib_a-svfprintf.o)
 .bss           0x00000000        0x0 c:/intelfpga/18.0/embedded/host_tools/mentor/gnu/arm/baremetal/bin/../lib/gcc/arm-altera-eabi/6.2.0/../../../../arm-altera-eabi/lib\libc.a(lib_a-svfprintf.o)
 .text          0x00000000      0x238 c:/intelfpga/18.0/embedded/host_tools/mentor/gnu/arm/baremetal/bin/../lib/gcc/arm-altera-eabi/6.2.0/../../../../arm-altera-eabi/lib\libc.a(lib_a-tzcalc_limits.o)
 .data          0x00000000        0x0 c:/intelfpga/18.0/embedded/host_tools/mentor/gnu/arm/baremetal/bin/../lib/gcc/arm-altera-eabi/6.2.0/../../../../arm-altera-eabi/lib\libc.a(lib_a-tzcalc_limits.o)
 .bss           0x00000000        0x0 c:/intelfpga/18.0/embedded/host_tools/mentor/gnu/arm/baremetal/bin/../lib/gcc/arm-altera-eabi/6.2.0/../../../../arm-altera-eabi/lib\libc.a(lib_a-tzcalc_limits.o)
 .text          0x00000000       0x30 c:/intelfpga/18.0/embedded/host_tools/mentor/gnu/arm/baremetal/bin/../lib/gcc/arm-altera-eabi/6.2.0/../../../../arm-altera-eabi/lib\libc.a(lib_a-tzset.o)
 .data          0x00000000        0x0 c:/intelfpga/18.0/embedded/host_tools/mentor/gnu/arm/baremetal/bin/../lib/gcc/arm-altera-eabi/6.2.0/../../../../arm-altera-eabi/lib\libc.a(lib_a-tzset.o)
 .bss           0x00000000        0x0 c:/intelfpga/18.0/embedded/host_tools/mentor/gnu/arm/baremetal/bin/../lib/gcc/arm-altera-eabi/6.2.0/../../../../arm-altera-eabi/lib\libc.a(lib_a-tzset.o)
 .text          0x00000000      0x4b4 c:/intelfpga/18.0/embedded/host_tools/mentor/gnu/arm/baremetal/bin/../lib/gcc/arm-altera-eabi/6.2.0/../../../../arm-altera-eabi/lib\libc.a(lib_a-tzset_r.o)
 .data          0x00000000        0x0 c:/intelfpga/18.0/embedded/host_tools/mentor/gnu/arm/baremetal/bin/../lib/gcc/arm-altera-eabi/6.2.0/../../../../arm-altera-eabi/lib\libc.a(lib_a-tzset_r.o)
 .bss           0x00000000       0x1b c:/intelfpga/18.0/embedded/host_tools/mentor/gnu/arm/baremetal/bin/../lib/gcc/arm-altera-eabi/6.2.0/../../../../arm-altera-eabi/lib\libc.a(lib_a-tzset_r.o)
 .rodata.str1.4
                0x00000000       0x53 c:/intelfpga/18.0/embedded/host_tools/mentor/gnu/arm/baremetal/bin/../lib/gcc/arm-altera-eabi/6.2.0/../../../../arm-altera-eabi/lib\libc.a(lib_a-tzset_r.o)
 .text          0x00000000        0x0 c:/intelfpga/18.0/embedded/host_tools/mentor/gnu/arm/baremetal/bin/../lib/gcc/arm-altera-eabi/6.2.0/../../../../arm-altera-eabi/lib\libc.a(lib_a-tzvars.o)
 .data          0x00000000        0x8 c:/intelfpga/18.0/embedded/host_tools/mentor/gnu/arm/baremetal/bin/../lib/gcc/arm-altera-eabi/6.2.0/../../../../arm-altera-eabi/lib\libc.a(lib_a-tzvars.o)
 .bss           0x00000000        0x8 c:/intelfpga/18.0/embedded/host_tools/mentor/gnu/arm/baremetal/bin/../lib/gcc/arm-altera-eabi/6.2.0/../../../../arm-altera-eabi/lib\libc.a(lib_a-tzvars.o)
 .rodata.str1.4
                0x00000000        0x4 c:/intelfpga/18.0/embedded/host_tools/mentor/gnu/arm/baremetal/bin/../lib/gcc/arm-altera-eabi/6.2.0/../../../../arm-altera-eabi/lib\libc.a(lib_a-tzvars.o)
 .data          0x00000000        0x0 c:/intelfpga/18.0/embedded/host_tools/mentor/gnu/arm/baremetal/bin/../lib/gcc/arm-altera-eabi/6.2.0/../../../../arm-altera-eabi/lib\libc.a(lib_a-vfprintf.o)
 .bss           0x00000000        0x0 c:/intelfpga/18.0/embedded/host_tools/mentor/gnu/arm/baremetal/bin/../lib/gcc/arm-altera-eabi/6.2.0/../../../../arm-altera-eabi/lib\libc.a(lib_a-vfprintf.o)
 .data          0x00000000        0x0 c:/intelfpga/18.0/embedded/host_tools/mentor/gnu/arm/baremetal/bin/../lib/gcc/arm-altera-eabi/6.2.0/../../../../arm-altera-eabi/lib\libc.a(lib_a-wbuf.o)
 .bss           0x00000000        0x0 c:/intelfpga/18.0/embedded/host_tools/mentor/gnu/arm/baremetal/bin/../lib/gcc/arm-altera-eabi/6.2.0/../../../../arm-altera-eabi/lib\libc.a(lib_a-wbuf.o)
 .data          0x00000000        0x0 c:/intelfpga/18.0/embedded/host_tools/mentor/gnu/arm/baremetal/bin/../lib/gcc/arm-altera-eabi/6.2.0/../../../../arm-altera-eabi/lib\libc.a(lib_a-wsetup.o)
 .bss           0x00000000        0x0 c:/intelfpga/18.0/embedded/host_tools/mentor/gnu/arm/baremetal/bin/../lib/gcc/arm-altera-eabi/6.2.0/../../../../arm-altera-eabi/lib\libc.a(lib_a-wsetup.o)
 .text          0x00000000       0x64 c:/intelfpga/18.0/embedded/host_tools/mentor/gnu/arm/baremetal/bin/../lib/gcc/arm-altera-eabi/6.2.0/../../../../arm-altera-eabi/lib\libc.a(lib_a-div.o)
 .data          0x00000000        0x0 c:/intelfpga/18.0/embedded/host_tools/mentor/gnu/arm/baremetal/bin/../lib/gcc/arm-altera-eabi/6.2.0/../../../../arm-altera-eabi/lib\libc.a(lib_a-div.o)
 .bss           0x00000000        0x0 c:/intelfpga/18.0/embedded/host_tools/mentor/gnu/arm/baremetal/bin/../lib/gcc/arm-altera-eabi/6.2.0/../../../../arm-altera-eabi/lib\libc.a(lib_a-div.o)
 .data          0x00000000        0x0 c:/intelfpga/18.0/embedded/host_tools/mentor/gnu/arm/baremetal/bin/../lib/gcc/arm-altera-eabi/6.2.0/../../../../arm-altera-eabi/lib\libc.a(lib_a-dtoa.o)
 .bss           0x00000000        0x0 c:/intelfpga/18.0/embedded/host_tools/mentor/gnu/arm/baremetal/bin/../lib/gcc/arm-altera-eabi/6.2.0/../../../../arm-altera-eabi/lib\libc.a(lib_a-dtoa.o)
 .data          0x00000000        0x0 c:/intelfpga/18.0/embedded/host_tools/mentor/gnu/arm/baremetal/bin/../lib/gcc/arm-altera-eabi/6.2.0/../../../../arm-altera-eabi/lib\libc.a(lib_a-fflush.o)
 .bss           0x00000000        0x0 c:/intelfpga/18.0/embedded/host_tools/mentor/gnu/arm/baremetal/bin/../lib/gcc/arm-altera-eabi/6.2.0/../../../../arm-altera-eabi/lib\libc.a(lib_a-fflush.o)
 .data          0x00000000        0x0 c:/intelfpga/18.0/embedded/host_tools/mentor/gnu/arm/baremetal/bin/../lib/gcc/arm-altera-eabi/6.2.0/../../../../arm-altera-eabi/lib\libc.a(lib_a-findfp.o)
 .data          0x00000000        0x0 c:/intelfpga/18.0/embedded/host_tools/mentor/gnu/arm/baremetal/bin/../lib/gcc/arm-altera-eabi/6.2.0/../../../../arm-altera-eabi/lib\libc.a(lib_a-freer.o)
 .bss           0x00000000        0x0 c:/intelfpga/18.0/embedded/host_tools/mentor/gnu/arm/baremetal/bin/../lib/gcc/arm-altera-eabi/6.2.0/../../../../arm-altera-eabi/lib\libc.a(lib_a-freer.o)
 .data          0x00000000        0x0 c:/intelfpga/18.0/embedded/host_tools/mentor/gnu/arm/baremetal/bin/../lib/gcc/arm-altera-eabi/6.2.0/../../../../arm-altera-eabi/lib\libc.a(lib_a-fvwrite.o)
 .bss           0x00000000        0x0 c:/intelfpga/18.0/embedded/host_tools/mentor/gnu/arm/baremetal/bin/../lib/gcc/arm-altera-eabi/6.2.0/../../../../arm-altera-eabi/lib\libc.a(lib_a-fvwrite.o)
 .data          0x00000000        0x0 c:/intelfpga/18.0/embedded/host_tools/mentor/gnu/arm/baremetal/bin/../lib/gcc/arm-altera-eabi/6.2.0/../../../../arm-altera-eabi/lib\libc.a(lib_a-fwalk.o)
 .bss           0x00000000        0x0 c:/intelfpga/18.0/embedded/host_tools/mentor/gnu/arm/baremetal/bin/../lib/gcc/arm-altera-eabi/6.2.0/../../../../arm-altera-eabi/lib\libc.a(lib_a-fwalk.o)
 .text          0x00000000       0xec c:/intelfpga/18.0/embedded/host_tools/mentor/gnu/arm/baremetal/bin/../lib/gcc/arm-altera-eabi/6.2.0/../../../../arm-altera-eabi/lib\libc.a(lib_a-getenv_r.o)
 .data          0x00000000        0x0 c:/intelfpga/18.0/embedded/host_tools/mentor/gnu/arm/baremetal/bin/../lib/gcc/arm-altera-eabi/6.2.0/../../../../arm-altera-eabi/lib\libc.a(lib_a-getenv_r.o)
 .bss           0x00000000        0x0 c:/intelfpga/18.0/embedded/host_tools/mentor/gnu/arm/baremetal/bin/../lib/gcc/arm-altera-eabi/6.2.0/../../../../arm-altera-eabi/lib\libc.a(lib_a-getenv_r.o)
 .text          0x00000000        0xc c:/intelfpga/18.0/embedded/host_tools/mentor/gnu/arm/baremetal/bin/../lib/gcc/arm-altera-eabi/6.2.0/../../../../arm-altera-eabi/lib\libc.a(lib_a-gettzinfo.o)
 .data          0x00000000       0x40 c:/intelfpga/18.0/embedded/host_tools/mentor/gnu/arm/baremetal/bin/../lib/gcc/arm-altera-eabi/6.2.0/../../../../arm-altera-eabi/lib\libc.a(lib_a-gettzinfo.o)
 .bss           0x00000000        0x0 c:/intelfpga/18.0/embedded/host_tools/mentor/gnu/arm/baremetal/bin/../lib/gcc/arm-altera-eabi/6.2.0/../../../../arm-altera-eabi/lib\libc.a(lib_a-gettzinfo.o)
 .bss           0x00000000        0x4 c:/intelfpga/18.0/embedded/host_tools/mentor/gnu/arm/baremetal/bin/../lib/gcc/arm-altera-eabi/6.2.0/../../../../arm-altera-eabi/lib\libc.a(lib_a-locale.o)
 .data          0x00000000        0x0 c:/intelfpga/18.0/embedded/host_tools/mentor/gnu/arm/baremetal/bin/../lib/gcc/arm-altera-eabi/6.2.0/../../../../arm-altera-eabi/lib\libc.a(lib_a-localeconv.o)
 .bss           0x00000000        0x0 c:/intelfpga/18.0/embedded/host_tools/mentor/gnu/arm/baremetal/bin/../lib/gcc/arm-altera-eabi/6.2.0/../../../../arm-altera-eabi/lib\libc.a(lib_a-localeconv.o)
 .data          0x00000000        0x0 c:/intelfpga/18.0/embedded/host_tools/mentor/gnu/arm/baremetal/bin/../lib/gcc/arm-altera-eabi/6.2.0/../../../../arm-altera-eabi/lib\libc.a(lib_a-makebuf.o)
 .bss           0x00000000        0x0 c:/intelfpga/18.0/embedded/host_tools/mentor/gnu/arm/baremetal/bin/../lib/gcc/arm-altera-eabi/6.2.0/../../../../arm-altera-eabi/lib\libc.a(lib_a-makebuf.o)
 .data          0x00000000        0x0 c:/intelfpga/18.0/embedded/host_tools/mentor/gnu/arm/baremetal/bin/../lib/gcc/arm-altera-eabi/6.2.0/../../../../arm-altera-eabi/lib\libc.a(lib_a-mbtowc_r.o)
 .bss           0x00000000        0x0 c:/intelfpga/18.0/embedded/host_tools/mentor/gnu/arm/baremetal/bin/../lib/gcc/arm-altera-eabi/6.2.0/../../../../arm-altera-eabi/lib\libc.a(lib_a-mbtowc_r.o)
 .data          0x00000000        0x0 c:/intelfpga/18.0/embedded/host_tools/mentor/gnu/arm/baremetal/bin/../lib/gcc/arm-altera-eabi/6.2.0/../../../../arm-altera-eabi/lib\libc.a(lib_a-memchr-stub.o)
 .bss           0x00000000        0x0 c:/intelfpga/18.0/embedded/host_tools/mentor/gnu/arm/baremetal/bin/../lib/gcc/arm-altera-eabi/6.2.0/../../../../arm-altera-eabi/lib\libc.a(lib_a-memchr-stub.o)
 .text          0x00000000        0x0 c:/intelfpga/18.0/embedded/host_tools/mentor/gnu/arm/baremetal/bin/../lib/gcc/arm-altera-eabi/6.2.0/../../../../arm-altera-eabi/lib\libc.a(lib_a-month_lengths.o)
 .data          0x00000000        0x0 c:/intelfpga/18.0/embedded/host_tools/mentor/gnu/arm/baremetal/bin/../lib/gcc/arm-altera-eabi/6.2.0/../../../../arm-altera-eabi/lib\libc.a(lib_a-month_lengths.o)
 .bss           0x00000000        0x0 c:/intelfpga/18.0/embedded/host_tools/mentor/gnu/arm/baremetal/bin/../lib/gcc/arm-altera-eabi/6.2.0/../../../../arm-altera-eabi/lib\libc.a(lib_a-month_lengths.o)
 .rodata        0x00000000       0x60 c:/intelfpga/18.0/embedded/host_tools/mentor/gnu/arm/baremetal/bin/../lib/gcc/arm-altera-eabi/6.2.0/../../../../arm-altera-eabi/lib\libc.a(lib_a-month_lengths.o)
 .data          0x00000000        0x0 c:/intelfpga/18.0/embedded/host_tools/mentor/gnu/arm/baremetal/bin/../lib/gcc/arm-altera-eabi/6.2.0/../../../../arm-altera-eabi/lib\libc.a(lib_a-mprec.o)
 .bss           0x00000000        0x0 c:/intelfpga/18.0/embedded/host_tools/mentor/gnu/arm/baremetal/bin/../lib/gcc/arm-altera-eabi/6.2.0/../../../../arm-altera-eabi/lib\libc.a(lib_a-mprec.o)
 .data          0x00000000        0x0 c:/intelfpga/18.0/embedded/host_tools/mentor/gnu/arm/baremetal/bin/../lib/gcc/arm-altera-eabi/6.2.0/../../../../arm-altera-eabi/lib\libc.a(lib_a-putc.o)
 .bss           0x00000000        0x0 c:/intelfpga/18.0/embedded/host_tools/mentor/gnu/arm/baremetal/bin/../lib/gcc/arm-altera-eabi/6.2.0/../../../../arm-altera-eabi/lib\libc.a(lib_a-putc.o)
 .data          0x00000000        0x0 c:/intelfpga/18.0/embedded/host_tools/mentor/gnu/arm/baremetal/bin/../lib/gcc/arm-altera-eabi/6.2.0/../../../../arm-altera-eabi/lib\libc.a(lib_a-refill.o)
 .bss           0x00000000        0x0 c:/intelfpga/18.0/embedded/host_tools/mentor/gnu/arm/baremetal/bin/../lib/gcc/arm-altera-eabi/6.2.0/../../../../arm-altera-eabi/lib\libc.a(lib_a-refill.o)
 .text          0x00000000       0xf4 c:/intelfpga/18.0/embedded/host_tools/mentor/gnu/arm/baremetal/bin/../lib/gcc/arm-altera-eabi/6.2.0/../../../../arm-altera-eabi/lib\libc.a(lib_a-siscanf.o)
 .data          0x00000000        0x0 c:/intelfpga/18.0/embedded/host_tools/mentor/gnu/arm/baremetal/bin/../lib/gcc/arm-altera-eabi/6.2.0/../../../../arm-altera-eabi/lib\libc.a(lib_a-siscanf.o)
 .bss           0x00000000        0x0 c:/intelfpga/18.0/embedded/host_tools/mentor/gnu/arm/baremetal/bin/../lib/gcc/arm-altera-eabi/6.2.0/../../../../arm-altera-eabi/lib\libc.a(lib_a-siscanf.o)
 .data          0x00000000        0x0 c:/intelfpga/18.0/embedded/host_tools/mentor/gnu/arm/baremetal/bin/../lib/gcc/arm-altera-eabi/6.2.0/../../../../arm-altera-eabi/lib\libc.a(lib_a-stdio.o)
 .bss           0x00000000        0x0 c:/intelfpga/18.0/embedded/host_tools/mentor/gnu/arm/baremetal/bin/../lib/gcc/arm-altera-eabi/6.2.0/../../../../arm-altera-eabi/lib\libc.a(lib_a-stdio.o)
 .data          0x00000000        0x0 c:/intelfpga/18.0/embedded/host_tools/mentor/gnu/arm/baremetal/bin/../lib/gcc/arm-altera-eabi/6.2.0/../../../../arm-altera-eabi/lib\libc.a(lib_a-svfiprintf.o)
 .bss           0x00000000        0x0 c:/intelfpga/18.0/embedded/host_tools/mentor/gnu/arm/baremetal/bin/../lib/gcc/arm-altera-eabi/6.2.0/../../../../arm-altera-eabi/lib\libc.a(lib_a-svfiprintf.o)
 .text          0x00000000     0x11ac c:/intelfpga/18.0/embedded/host_tools/mentor/gnu/arm/baremetal/bin/../lib/gcc/arm-altera-eabi/6.2.0/../../../../arm-altera-eabi/lib\libc.a(lib_a-svfiscanf.o)
 .data          0x00000000        0x0 c:/intelfpga/18.0/embedded/host_tools/mentor/gnu/arm/baremetal/bin/../lib/gcc/arm-altera-eabi/6.2.0/../../../../arm-altera-eabi/lib\libc.a(lib_a-svfiscanf.o)
 .bss           0x00000000        0x0 c:/intelfpga/18.0/embedded/host_tools/mentor/gnu/arm/baremetal/bin/../lib/gcc/arm-altera-eabi/6.2.0/../../../../arm-altera-eabi/lib\libc.a(lib_a-svfiscanf.o)
 .rodata        0x00000000       0x22 c:/intelfpga/18.0/embedded/host_tools/mentor/gnu/arm/baremetal/bin/../lib/gcc/arm-altera-eabi/6.2.0/../../../../arm-altera-eabi/lib\libc.a(lib_a-svfiscanf.o)
 .text          0x00000000      0x2f0 c:/intelfpga/18.0/embedded/host_tools/mentor/gnu/arm/baremetal/bin/../lib/gcc/arm-altera-eabi/6.2.0/../../../../arm-altera-eabi/lib\libc.a(lib_a-ungetc.o)
 .data          0x00000000        0x0 c:/intelfpga/18.0/embedded/host_tools/mentor/gnu/arm/baremetal/bin/../lib/gcc/arm-altera-eabi/6.2.0/../../../../arm-altera-eabi/lib\libc.a(lib_a-ungetc.o)
 .bss           0x00000000        0x0 c:/intelfpga/18.0/embedded/host_tools/mentor/gnu/arm/baremetal/bin/../lib/gcc/arm-altera-eabi/6.2.0/../../../../arm-altera-eabi/lib\libc.a(lib_a-ungetc.o)
 .data          0x00000000        0x0 c:/intelfpga/18.0/embedded/host_tools/mentor/gnu/arm/baremetal/bin/../lib/gcc/arm-altera-eabi/6.2.0/../../../../arm-altera-eabi/lib\libc.a(lib_a-vfiprintf.o)
 .bss           0x00000000        0x0 c:/intelfpga/18.0/embedded/host_tools/mentor/gnu/arm/baremetal/bin/../lib/gcc/arm-altera-eabi/6.2.0/../../../../arm-altera-eabi/lib\libc.a(lib_a-vfiprintf.o)
 .data          0x00000000        0x0 c:/intelfpga/18.0/embedded/host_tools/mentor/gnu/arm/baremetal/bin/../lib/gcc/arm-altera-eabi/6.2.0/../../../../arm-altera-eabi/lib\libc.a(lib_a-wctomb_r.o)
 .bss           0x00000000        0x0 c:/intelfpga/18.0/embedded/host_tools/mentor/gnu/arm/baremetal/bin/../lib/gcc/arm-altera-eabi/6.2.0/../../../../arm-altera-eabi/lib\libc.a(lib_a-wctomb_r.o)
 .text          0x00000000        0x0 c:/intelfpga/18.0/embedded/host_tools/mentor/gnu/arm/baremetal/bin/../lib/gcc/arm-altera-eabi/6.2.0/../../../../arm-altera-eabi/lib\libc.a(lib_a-ctype_.o)
 .data          0x00000000        0x0 c:/intelfpga/18.0/embedded/host_tools/mentor/gnu/arm/baremetal/bin/../lib/gcc/arm-altera-eabi/6.2.0/../../../../arm-altera-eabi/lib\libc.a(lib_a-ctype_.o)
 .bss           0x00000000        0x0 c:/intelfpga/18.0/embedded/host_tools/mentor/gnu/arm/baremetal/bin/../lib/gcc/arm-altera-eabi/6.2.0/../../../../arm-altera-eabi/lib\libc.a(lib_a-ctype_.o)
 .text          0x00000000        0x0 c:/intelfpga/18.0/embedded/host_tools/mentor/gnu/arm/baremetal/bin/../lib/gcc/arm-altera-eabi/6.2.0/../../../../arm-altera-eabi/lib\libc.a(lib_a-environ.o)
 .data          0x00000000        0x4 c:/intelfpga/18.0/embedded/host_tools/mentor/gnu/arm/baremetal/bin/../lib/gcc/arm-altera-eabi/6.2.0/../../../../arm-altera-eabi/lib\libc.a(lib_a-environ.o)
 .bss           0x00000000        0x4 c:/intelfpga/18.0/embedded/host_tools/mentor/gnu/arm/baremetal/bin/../lib/gcc/arm-altera-eabi/6.2.0/../../../../arm-altera-eabi/lib\libc.a(lib_a-environ.o)
 .data          0x00000000        0x0 c:/intelfpga/18.0/embedded/host_tools/mentor/gnu/arm/baremetal/bin/../lib/gcc/arm-altera-eabi/6.2.0/../../../../arm-altera-eabi/lib\libc.a(lib_a-fclose.o)
 .bss           0x00000000        0x0 c:/intelfpga/18.0/embedded/host_tools/mentor/gnu/arm/baremetal/bin/../lib/gcc/arm-altera-eabi/6.2.0/../../../../arm-altera-eabi/lib\libc.a(lib_a-fclose.o)
 .data          0x00000000        0x0 c:/intelfpga/18.0/embedded/host_tools/mentor/gnu/arm/baremetal/bin/../lib/gcc/arm-altera-eabi/6.2.0/../../../../arm-altera-eabi/lib\libc.a(lib_a-fputwc.o)
 .bss           0x00000000        0x0 c:/intelfpga/18.0/embedded/host_tools/mentor/gnu/arm/baremetal/bin/../lib/gcc/arm-altera-eabi/6.2.0/../../../../arm-altera-eabi/lib\libc.a(lib_a-fputwc.o)
 .text          0x00000000       0x30 c:/intelfpga/18.0/embedded/host_tools/mentor/gnu/arm/baremetal/bin/../lib/gcc/arm-altera-eabi/6.2.0/../../../../arm-altera-eabi/lib\libc.a(lib_a-iswspace.o)
 .data          0x00000000        0x0 c:/intelfpga/18.0/embedded/host_tools/mentor/gnu/arm/baremetal/bin/../lib/gcc/arm-altera-eabi/6.2.0/../../../../arm-altera-eabi/lib\libc.a(lib_a-iswspace.o)
 .bss           0x00000000        0x0 c:/intelfpga/18.0/embedded/host_tools/mentor/gnu/arm/baremetal/bin/../lib/gcc/arm-altera-eabi/6.2.0/../../../../arm-altera-eabi/lib\libc.a(lib_a-iswspace.o)
 .text          0x00000000      0x170 c:/intelfpga/18.0/embedded/host_tools/mentor/gnu/arm/baremetal/bin/../lib/gcc/arm-altera-eabi/6.2.0/../../../../arm-altera-eabi/lib\libc.a(lib_a-mbrtowc.o)
 .data          0x00000000        0x0 c:/intelfpga/18.0/embedded/host_tools/mentor/gnu/arm/baremetal/bin/../lib/gcc/arm-altera-eabi/6.2.0/../../../../arm-altera-eabi/lib\libc.a(lib_a-mbrtowc.o)
 .bss           0x00000000        0x0 c:/intelfpga/18.0/embedded/host_tools/mentor/gnu/arm/baremetal/bin/../lib/gcc/arm-altera-eabi/6.2.0/../../../../arm-altera-eabi/lib\libc.a(lib_a-mbrtowc.o)
 .rodata.str1.4
                0x00000000        0x1 c:/intelfpga/18.0/embedded/host_tools/mentor/gnu/arm/baremetal/bin/../lib/gcc/arm-altera-eabi/6.2.0/../../../../arm-altera-eabi/lib\libc.a(lib_a-mbrtowc.o)
 .text          0x00000000       0xd0 c:/intelfpga/18.0/embedded/host_tools/mentor/gnu/arm/baremetal/bin/../lib/gcc/arm-altera-eabi/6.2.0/../../../../arm-altera-eabi/lib\libc.a(lib_a-sccl.o)
 .data          0x00000000        0x0 c:/intelfpga/18.0/embedded/host_tools/mentor/gnu/arm/baremetal/bin/../lib/gcc/arm-altera-eabi/6.2.0/../../../../arm-altera-eabi/lib\libc.a(lib_a-sccl.o)
 .bss           0x00000000        0x0 c:/intelfpga/18.0/embedded/host_tools/mentor/gnu/arm/baremetal/bin/../lib/gcc/arm-altera-eabi/6.2.0/../../../../arm-altera-eabi/lib\libc.a(lib_a-sccl.o)
 .text          0x00000000      0x3c8 c:/intelfpga/18.0/embedded/host_tools/mentor/gnu/arm/baremetal/bin/../lib/gcc/arm-altera-eabi/6.2.0/../../../../arm-altera-eabi/lib\libc.a(lib_a-strtoll.o)
 .data          0x00000000        0x0 c:/intelfpga/18.0/embedded/host_tools/mentor/gnu/arm/baremetal/bin/../lib/gcc/arm-altera-eabi/6.2.0/../../../../arm-altera-eabi/lib\libc.a(lib_a-strtoll.o)
 .bss           0x00000000        0x0 c:/intelfpga/18.0/embedded/host_tools/mentor/gnu/arm/baremetal/bin/../lib/gcc/arm-altera-eabi/6.2.0/../../../../arm-altera-eabi/lib\libc.a(lib_a-strtoll.o)
 .text          0x00000000      0x360 c:/intelfpga/18.0/embedded/host_tools/mentor/gnu/arm/baremetal/bin/../lib/gcc/arm-altera-eabi/6.2.0/../../../../arm-altera-eabi/lib\libc.a(lib_a-strtoull.o)
 .data          0x00000000        0x0 c:/intelfpga/18.0/embedded/host_tools/mentor/gnu/arm/baremetal/bin/../lib/gcc/arm-altera-eabi/6.2.0/../../../../arm-altera-eabi/lib\libc.a(lib_a-strtoull.o)
 .bss           0x00000000        0x0 c:/intelfpga/18.0/embedded/host_tools/mentor/gnu/arm/baremetal/bin/../lib/gcc/arm-altera-eabi/6.2.0/../../../../arm-altera-eabi/lib\libc.a(lib_a-strtoull.o)
 .data          0x00000000        0x0 c:/intelfpga/18.0/embedded/host_tools/mentor/gnu/arm/baremetal/bin/../lib/gcc/arm-altera-eabi/6.2.0/../../../../arm-altera-eabi/lib\libc.a(lib_a-wcrtomb.o)
 .bss           0x00000000        0x0 c:/intelfpga/18.0/embedded/host_tools/mentor/gnu/arm/baremetal/bin/../lib/gcc/arm-altera-eabi/6.2.0/../../../../arm-altera-eabi/lib\libc.a(lib_a-wcrtomb.o)
 .data          0x00000000        0x0 c:/intelfpga/18.0/embedded/host_tools/mentor/gnu/arm/baremetal/bin/../lib/gcc/arm-altera-eabi/6.2.0\libgcc.a(_arm_addsubdf3.o)
 .bss           0x00000000        0x0 c:/intelfpga/18.0/embedded/host_tools/mentor/gnu/arm/baremetal/bin/../lib/gcc/arm-altera-eabi/6.2.0\libgcc.a(_arm_addsubdf3.o)
 .data          0x00000000        0x0 c:/intelfpga/18.0/embedded/host_tools/mentor/gnu/arm/baremetal/bin/../lib/gcc/arm-altera-eabi/6.2.0\libgcc.a(_arm_muldivdf3.o)
 .bss           0x00000000        0x0 c:/intelfpga/18.0/embedded/host_tools/mentor/gnu/arm/baremetal/bin/../lib/gcc/arm-altera-eabi/6.2.0\libgcc.a(_arm_muldivdf3.o)
 .data          0x00000000        0x0 c:/intelfpga/18.0/embedded/host_tools/mentor/gnu/arm/baremetal/bin/../lib/gcc/arm-altera-eabi/6.2.0\libgcc.a(_arm_cmpdf2.o)
 .bss           0x00000000        0x0 c:/intelfpga/18.0/embedded/host_tools/mentor/gnu/arm/baremetal/bin/../lib/gcc/arm-altera-eabi/6.2.0\libgcc.a(_arm_cmpdf2.o)
 .data          0x00000000        0x0 c:/intelfpga/18.0/embedded/host_tools/mentor/gnu/arm/baremetal/bin/../lib/gcc/arm-altera-eabi/6.2.0\libgcc.a(_arm_unorddf2.o)
 .bss           0x00000000        0x0 c:/intelfpga/18.0/embedded/host_tools/mentor/gnu/arm/baremetal/bin/../lib/gcc/arm-altera-eabi/6.2.0\libgcc.a(_arm_unorddf2.o)
 .data          0x00000000        0x0 c:/intelfpga/18.0/embedded/host_tools/mentor/gnu/arm/baremetal/bin/../lib/gcc/arm-altera-eabi/6.2.0\libgcc.a(_arm_fixdfsi.o)
 .bss           0x00000000        0x0 c:/intelfpga/18.0/embedded/host_tools/mentor/gnu/arm/baremetal/bin/../lib/gcc/arm-altera-eabi/6.2.0\libgcc.a(_arm_fixdfsi.o)
 .text          0x00000000        0x0 c:/intelfpga/18.0/embedded/host_tools/mentor/gnu/arm/baremetal/bin/../lib/gcc/arm-altera-eabi/6.2.0/crtend.o
 .data          0x00000000        0x0 c:/intelfpga/18.0/embedded/host_tools/mentor/gnu/arm/baremetal/bin/../lib/gcc/arm-altera-eabi/6.2.0/crtend.o
 .bss           0x00000000        0x0 c:/intelfpga/18.0/embedded/host_tools/mentor/gnu/arm/baremetal/bin/../lib/gcc/arm-altera-eabi/6.2.0/crtend.o
 .text          0x00000000        0x0 c:/intelfpga/18.0/embedded/host_tools/mentor/gnu/arm/baremetal/bin/../lib/gcc/arm-altera-eabi/6.2.0/crtn.o
 .data          0x00000000        0x0 c:/intelfpga/18.0/embedded/host_tools/mentor/gnu/arm/baremetal/bin/../lib/gcc/arm-altera-eabi/6.2.0/crtn.o
 .bss           0x00000000        0x0 c:/intelfpga/18.0/embedded/host_tools/mentor/gnu/arm/baremetal/bin/../lib/gcc/arm-altera-eabi/6.2.0/crtn.o

Memory Configuration

Name             Origin             Length             Attributes
ram              0x02000000         0x1e000000         xrw
uram             0xffff0000         0x00010000         xrw
*default*        0x00000000         0xffffffff

Linker script and memory map

LOAD c:/intelfpga/18.0/embedded/host_tools/mentor/gnu/arm/baremetal/bin/../lib/gcc/arm-altera-eabi/6.2.0/crti.o
LOAD c:/intelfpga/18.0/embedded/host_tools/mentor/gnu/arm/baremetal/bin/../lib/gcc/arm-altera-eabi/6.2.0/crtbegin.o
LOAD Main_mAbassi.o
LOAD MyApp_Web.o
LOAD MyFatFS.o
LOAD SysCall_noFS.o
LOAD TIMERinit.o
LOAD CGI_SSI.o
LOAD NetAddr.o
LOAD WebServer.o
LOAD httpserver-netconn.o
LOAD arm_acp.o
LOAD arm_pl330.o
LOAD alt_gpio.o
LOAD dw_ethernet.o
LOAD dw_i2c.o
LOAD dw_uart.o
LOAD dw_sdmmc.o
LOAD alt_generalpurpose_io.o
LOAD api_lib.o
LOAD api_msg.o
LOAD autoip.o
LOAD def.o
LOAD dhcp.o
LOAD dns.o
LOAD err.o
LOAD etharp.o
LOAD ethernetif.o
LOAD icmp.o
LOAD igmp.o
LOAD inet.o
LOAD inet_chksum.o
LOAD init.o
LOAD ip.o
LOAD ip_addr.o
LOAD ip_frag.o
LOAD mem.o
LOAD memp.o
LOAD netbuf.o
LOAD netdb.o
LOAD netif.o
LOAD netifapi.o
LOAD pbuf.o
LOAD raw.o
LOAD stats.o
LOAD sys.o
LOAD sys_arch.o
LOAD sockets.o
LOAD tcp.o
LOAD tcp_in.o
LOAD tcp_out.o
LOAD tcpip.o
LOAD timers.o
LOAD udp.o
LOAD Abassi_FatFS.o
LOAD Media_FatFS.o
LOAD MediaIF.o
LOAD SysCall_CY5.o
LOAD ff.o
LOAD ffunicode.o
LOAD fs.o
LOAD mAbassiCfgA9.o
LOAD ../../mAbassi/Platform/lib\lib_mAbassi_EVAL_R_GCC_AR5_CY5.a
LOAD c:/intelfpga/18.0/embedded/host_tools/mentor/gnu/arm/baremetal/bin/../lib/gcc/arm-altera-eabi/6.2.0/../../../../arm-altera-eabi/lib\libcs3.a
LOAD c:/intelfpga/18.0/embedded/host_tools/mentor/gnu/arm/baremetal/bin/../lib/gcc/arm-altera-eabi/6.2.0/../../../../arm-altera-eabi/lib\libcs3unhosted.a
LOAD c:/intelfpga/18.0/embedded/host_tools/mentor/gnu/arm/baremetal/bin/../lib/gcc/arm-altera-eabi/6.2.0/../../../../arm-altera-eabi/lib\libcs3arm.a
LOAD c:/intelfpga/18.0/embedded/host_tools/mentor/gnu/arm/baremetal/bin/../lib/gcc/arm-altera-eabi/6.2.0\libgcc.a
LOAD c:/intelfpga/18.0/embedded/host_tools/mentor/gnu/arm/baremetal/bin/../lib/gcc/arm-altera-eabi/6.2.0/../../../../arm-altera-eabi/lib\libc.a
LOAD c:/intelfpga/18.0/embedded/host_tools/mentor/gnu/arm/baremetal/bin/../lib/gcc/arm-altera-eabi/6.2.0/../../../../arm-altera-eabi/lib\libstdc++.a
LOAD c:/intelfpga/18.0/embedded/host_tools/mentor/gnu/arm/baremetal/bin/../lib/gcc/arm-altera-eabi/6.2.0/../../../../arm-altera-eabi/lib\libm.a
START GROUP
LOAD c:/intelfpga/18.0/embedded/host_tools/mentor/gnu/arm/baremetal/bin/../lib/gcc/arm-altera-eabi/6.2.0\libgcc.a
LOAD c:/intelfpga/18.0/embedded/host_tools/mentor/gnu/arm/baremetal/bin/../lib/gcc/arm-altera-eabi/6.2.0/../../../../arm-altera-eabi/lib\libc.a
END GROUP
LOAD c:/intelfpga/18.0/embedded/host_tools/mentor/gnu/arm/baremetal/bin/../lib/gcc/arm-altera-eabi/6.2.0/crtend.o
LOAD c:/intelfpga/18.0/embedded/host_tools/mentor/gnu/arm/baremetal/bin/../lib/gcc/arm-altera-eabi/6.2.0/crtn.o
                0x00002000                _STACK_SIZE = DEFINED (_STACK_SIZE)?_STACK_SIZE:0x2000
                0x10000000                _MDRV_SIZE = DEFINED (_MDRV_SIZE)?_MDRV_SIZE:0x10000000
                0x00000800                _SUPERVISOR_STACK_SIZE = DEFINED (_SUPERVISOR_STACK_SIZE)?_SUPERVISOR_STACK_SIZE:0x800
                0x00000800                _ABORT_STACK_SIZE = DEFINED (_ABORT_STACK_SIZE)?_ABORT_STACK_SIZE:0x800
                0x00000800                _FIQ_STACK_SIZE = DEFINED (_FIQ_STACK_SIZE)?_FIQ_STACK_SIZE:0x800
                0x00002000                _IRQ_STACK_SIZE = DEFINED (_IRQ_STACK_SIZE)?_IRQ_STACK_SIZE:0x2000
                0x00000800                _UNDEF_STACK_SIZE = DEFINED (_UNDEF_STACK_SIZE)?_UNDEF_STACK_SIZE:0x800
                0x00000001                PROVIDE (__cs3_region_num, ((__cs3_regions_end - __cs3_regions) / 0x14))
                0x021acac8                __libc_fini = _fini

.text           0x02000000    0x40498
 CREATE_OBJECT_SYMBOLS
                0x02000000                __cs3_region_start_ram = .
                0x02000000                _ftext = .
 *(.cs3.region-head.ram)
                0x00000001                ASSERT ((. == __cs3_region_start_ram), .cs3.region-head.ram not permitted)
                0x02000000                __cs3_interrupt_vector = __cs3_interrupt_vector_arm
 *(.cs3.interrupt_vector)
 .cs3.interrupt_vector
                0x02000000       0x3c ../../mAbassi/Platform/lib\lib_mAbassi_EVAL_R_GCC_AR5_CY5.a(mAbassi_EVAL_GCC_AR5_CY5.o)
                0x02000000                Vectors
                0x02000000                __cs3_interrupt_vector_arm
                0x02000000                _vector_table
 *(.vectors)
                0x0202ffa4                PROVIDE (__cs3_reset, __cs3_reset_generic)
 *(.cs3.reset)
                [0x020000d0]                _start = DEFINED (__cs3_start_asm)?__cs3_start_asm:_start
 *(.text.cs3.init)
 .text.cs3.init
                0x0200003c       0x94 c:/intelfpga/18.0/embedded/host_tools/mentor/gnu/arm/baremetal/bin/../lib/gcc/arm-altera-eabi/6.2.0/../../../../arm-altera-eabi/lib\libcs3.a(start_c.o)
                0x0200003c                __cs3_start_c
 .text.cs3.init
                0x020000d0        0xc c:/intelfpga/18.0/embedded/host_tools/mentor/gnu/arm/baremetal/bin/../lib/gcc/arm-altera-eabi/6.2.0/../../../../arm-altera-eabi/lib\libcs3unhosted.a(unhosted-start.o)
 *(.text .text.* .gnu.linkonce.t.*)
 .text          0x020000dc      0x108 c:/intelfpga/18.0/embedded/host_tools/mentor/gnu/arm/baremetal/bin/../lib/gcc/arm-altera-eabi/6.2.0/crtbegin.o
 *fill*         0x020001e4        0x4 
 .text.startup.main
                0x020001e8      0x468 Main_mAbassi.o
                0x020001e8                main
 .text.TIMcallBack
                0x02000650        0x4 Main_mAbassi.o
                0x02000650                TIMcallBack
 .text.spi_CallbackInterrupt
                0x02000654       0x68 MyApp_Web.o
                0x02000654                spi_CallbackInterrupt
 .text.button_CallbackInterrupt
                0x020006bc       0x48 MyApp_Web.o
                0x020006bc                button_CallbackInterrupt
 .text.DoInitLwIP
                0x02000704      0x18c MyApp_Web.o
                0x02000704                DoInitLwIP
 .text.Task_FatFS
                0x02000890       0x38 MyApp_Web.o
                0x02000890                Task_FatFS
 .text.Task_FPGA_Led
                0x020008c8       0x48 MyApp_Web.o
                0x020008c8                Task_FPGA_Led
 .text.Task_FPGA_Button
                0x02000910       0xb8 MyApp_Web.o
                0x02000910                Task_FPGA_Button
 .text.setup_Interrupt
                0x020009c8       0x8c MyApp_Web.o
                0x020009c8                setup_Interrupt
 .text.setup_hps_gpio
                0x02000a54       0x78 MyApp_Web.o
                0x02000a54                setup_hps_gpio
 .text.Task_HPS_Led
                0x02000acc       0xdc MyApp_Web.o
                0x02000acc                Task_HPS_Led
 .text.cmd_pwd  0x02000ba8       0x84 MyFatFS.o
                0x02000ba8                cmd_pwd
 .text.cmd_cp   0x02000c2c      0x1e0 MyFatFS.o
                0x02000c2c                cmd_cp
 .text.cmd_cd   0x02000e0c       0x64 MyFatFS.o
                0x02000e0c                cmd_cd
 .text.cmd_chmod
                0x02000e70       0xd8 MyFatFS.o
                0x02000e70                cmd_chmod
 .text.cmd_du   0x02000f48      0x350 MyFatFS.o
                0x02000f48                cmd_du
 .text.cmd_fmt  0x02001298       0xa0 MyFatFS.o
                0x02001298                cmd_fmt
 .text.cmd_mkdir
                0x02001338       0x64 MyFatFS.o
                0x02001338                cmd_mkdir
 .text.cmd_mnt  0x0200139c      0x14c MyFatFS.o
                0x0200139c                cmd_mnt
 .text.cmd_mv   0x020014e8       0xc4 MyFatFS.o
                0x020014e8                cmd_mv
 .text.cmd_rm   0x020015ac       0xec MyFatFS.o
                0x020015ac                cmd_rm
 .text.cmd_rmdir
                0x02001698       0xec MyFatFS.o
                0x02001698                cmd_rmdir
 *fill*         0x02001784        0x4 
 .text.cmd_perf
                0x02001788      0x468 MyFatFS.o
                0x02001788                cmd_perf
 .text.cmd_umnt
                0x02001bf0       0xdc MyFatFS.o
                0x02001bf0                cmd_umnt
 .text.cmd_help
                0x02001ccc      0x2e4 MyFatFS.o
                0x02001ccc                cmd_help
 .text.cmd_cat  0x02001fb0      0x374 MyFatFS.o
                0x02001fb0                cmd_cat
 .text.cmd_ls   0x02002324      0x268 MyFatFS.o
                0x02002324                cmd_ls
 .text.DoInitFatFS
                0x0200258c      0x100 MyFatFS.o
                0x0200258c                DoInitFatFS
 .text.DoProcessFatFS
                0x0200268c      0x47c MyFatFS.o
                0x0200268c                DoProcessFatFS
 .text.SysCallInit
                0x02002b08        0x4 SysCall_noFS.o
                0x02002b08                SysCallInit
 .text._close_r
                0x02002b0c       0x10 SysCall_noFS.o
                0x02002b0c                _close_r
 .text._read_r  0x02002b1c       0x88 SysCall_noFS.o
                0x02002b1c                _read_r
 .text._write_r
                0x02002ba4       0x88 SysCall_noFS.o
                0x02002ba4                _write_r
 .text._lseek_r
                0x02002c2c       0x10 SysCall_noFS.o
                0x02002c2c                _lseek_r
 .text._fstat_r
                0x02002c3c       0x10 SysCall_noFS.o
                0x02002c3c                _fstat_r
 .text._isatty_r
                0x02002c4c       0x10 SysCall_noFS.o
                0x02002c4c                _isatty_r
 .text.TIMERinit
                0x02002c5c       0x28 TIMERinit.o
                0x02002c5c                TIMERinit
 .text.LEDS_CGI_Handler
                0x02002c84       0xb8 CGI_SSI.o
                0x02002c84                LEDS_CGI_Handler
 .text.XL345update
                0x02002d3c      0x1b8 CGI_SSI.o
                0x02002d3c                XL345update
 .text.ButtonUpdate
                0x02002ef4       0x30 CGI_SSI.o
                0x02002ef4                ButtonUpdate
 .text.WebPageRTOS
                0x02002f24      0x2c0 CGI_SSI.o
 .text.CGIinit  0x020031e4       0x14 CGI_SSI.o
                0x020031e4                CGIinit
 .text.POSTinit
                0x020031f8        0x4 CGI_SSI.o
                0x020031f8                POSTinit
 .text.SSIinit  0x020031fc      0x4b4 CGI_SSI.o
                0x020031fc                SSIinit
 .text.GetMACaddr
                0x020036b0       0x70 NetAddr.o
                0x020036b0                GetMACaddr
 .text.NetAddr_Init
                0x02003720      0x12c NetAddr.o
                0x02003720                NetAddr_Init
 .text.LwIP_Init
                0x0200384c      0x174 NetAddr.o
                0x0200384c                LwIP_Init
 .text.LwIP_DHCP_task
                0x020039c0      0x248 NetAddr.o
                0x020039c0                LwIP_DHCP_task
 .text.CGIparse.part.0
                0x02003c08      0x1f8 WebServer.o
 .text.SSIevalExpr
                0x02003e00      0x4a8 WebServer.o
 .text.SSIexpand
                0x020042a8      0xa80 WebServer.o
                0x020042a8                SSIexpand
 .text.CGIprocess
                0x02004d28      0x1ec WebServer.o
                0x02004d28                CGIprocess
 .text.POSTprocess
                0x02004f14      0x1e4 WebServer.o
                0x02004f14                POSTprocess
 .text.CGInewHandler
                0x020050f8       0x5c WebServer.o
                0x020050f8                CGInewHandler
 .text.SSInewUpdate
                0x02005154       0x54 WebServer.o
                0x02005154                SSInewUpdate
 .text.SSIvarUpdate
                0x020051a8      0x158 WebServer.o
                0x020051a8                SSIvarUpdate
 .text.SSInewVar
                0x02005300      0x288 WebServer.o
                0x02005300                SSInewVar
 .text.WebServerInit
                0x02005588       0xa8 WebServer.o
                0x02005588                WebServerInit
 .text.SSIsetVar
                0x02005630      0x10c WebServer.o
                0x02005630                SSIsetVar
 .text.WebserverTask
                0x0200573c      0x5cc httpserver-netconn.o
 .text.http_server_init
                0x02005d08       0x34 httpserver-netconn.o
                0x02005d08                http_server_init
 *fill*         0x02005d3c        0x4 
 .text.dma_init
                0x02005d40      0x340 arm_pl330.o
                0x02005d40                dma_init
 .text.DMAintHndl_0
                0x02006080      0x140 arm_pl330.o
                0x02006080                DMAintHndl_0
 .text.DMAintHndl_1
                0x020061c0      0x148 arm_pl330.o
                0x020061c0                DMAintHndl_1
 .text.DMAintHndl_2
                0x02006308      0x148 arm_pl330.o
                0x02006308                DMAintHndl_2
 .text.DMAintHndl_3
                0x02006450      0x14c arm_pl330.o
                0x02006450                DMAintHndl_3
 .text.DMAintHndl_4
                0x0200659c      0x148 arm_pl330.o
                0x0200659c                DMAintHndl_4
 .text.DMAintHndl_5
                0x020066e4      0x14c arm_pl330.o
                0x020066e4                DMAintHndl_5
 .text.DMAintHndl_6
                0x02006830      0x148 arm_pl330.o
                0x02006830                DMAintHndl_6
 .text.DMAintHndl_7
                0x02006978      0x14c arm_pl330.o
                0x02006978                DMAintHndl_7
 .text.gpio_dir
                0x02006ac4       0xc0 alt_gpio.o
                0x02006ac4                gpio_dir
 .text.gpio_get
                0x02006b84       0x5c alt_gpio.o
                0x02006b84                gpio_get
 .text.gpio_set
                0x02006be0       0x9c alt_gpio.o
                0x02006be0                gpio_set
 .text.gpio_init
                0x02006c7c       0x54 alt_gpio.o
                0x02006c7c                gpio_init
 .text.ETH_WrtPhyReg
                0x02006cd0       0xd0 dw_ethernet.o
 .text.ETH_RdPhyReg
                0x02006da0       0xc8 dw_ethernet.o
 .text.ETH_ResetEMAC.part.1
                0x02006e68      0x260 dw_ethernet.o
 .text.ETH_WrtPhyRegExt
                0x020070c8      0x5a8 dw_ethernet.o
 .text.ETH_MACAddressConfig
                0x02007670       0x50 dw_ethernet.o
                0x02007670                ETH_MACAddressConfig
 .text.ETH_Get_Received_Multi
                0x020076c0      0x11c dw_ethernet.o
                0x020076c0                ETH_Get_Received_Multi
 .text.ETH_Get_Received_Frame_Length
                0x020077dc       0x6c dw_ethernet.o
                0x020077dc                ETH_Get_Received_Frame_Length
 .text.ETH_Release_Received
                0x02007848       0xe4 dw_ethernet.o
                0x02007848                ETH_Release_Received
 .text.ETH_Prepare_Multi_Transmit
                0x0200792c      0x298 dw_ethernet.o
                0x0200792c                ETH_Prepare_Multi_Transmit
 .text.ETH_DMARxDescChainInit
                0x02007bc4       0xb8 dw_ethernet.o
                0x02007bc4                ETH_DMARxDescChainInit
 .text.ETH_DMATxDescChainInit
                0x02007c7c       0xa0 dw_ethernet.o
                0x02007c7c                ETH_DMATxDescChainInit
 .text.ETH_DMARxDescReceiveITConfig
                0x02007d1c       0x88 dw_ethernet.o
                0x02007d1c                ETH_DMARxDescReceiveITConfig
 .text.ETH_DMARxDescTransmitITConfig
                0x02007da4        0x4 dw_ethernet.o
                0x02007da4                ETH_DMARxDescTransmitITConfig
 .text.ETH_DMATxDescChecksumInsertionConfig
                0x02007da8       0x7c dw_ethernet.o
                0x02007da8                ETH_DMATxDescChecksumInsertionConfig
 .text.PHY_init
                0x02007e24     0x18f4 dw_ethernet.o
                0x02007e24                PHY_init
 .text.ETH_Start
                0x02009718       0x74 dw_ethernet.o
                0x02009718                ETH_Start
 .text.ETH_Restart
                0x0200978c      0x1d4 dw_ethernet.o
                0x0200978c                ETH_Restart
 .text.ETH_Get_Transmit_Buffer
                0x02009960       0x74 dw_ethernet.o
                0x02009960                ETH_Get_Transmit_Buffer
 .text.ETH_LinkStatus
                0x020099d4       0xd8 dw_ethernet.o
                0x020099d4                ETH_LinkStatus
 .text.ETH_MacConfigDMA
                0x02009aac       0xcc dw_ethernet.o
                0x02009aac                ETH_MacConfigDMA
 .text.ETH_ResetEMAC
                0x02009b78        0xc dw_ethernet.o
                0x02009b78                ETH_ResetEMAC
 .text.i2c_init
                0x02009b84      0x574 dw_i2c.o
                0x02009b84                i2c_init
 .text.i2c_send_recv
                0x0200a0f8      0x7c8 dw_i2c.o
                0x0200a0f8                i2c_send_recv
 .text.i2c_send
                0x0200a8c0      0x5d0 dw_i2c.o
                0x0200a8c0                i2c_send
 .text.uart_send
                0x0200ae90      0x8a8 dw_uart.o
                0x0200ae90                uart_send
 .text.uart_recv
                0x0200b738      0x794 dw_uart.o
                0x0200b738                uart_recv
 .text.uart_init
                0x0200becc      0x3f4 dw_uart.o
                0x0200becc                uart_init
 .text.UARTintHndl_0
                0x0200c2c0      0x1a0 dw_uart.o
                0x0200c2c0                UARTintHndl_0
 .text.UARTintHndl_1
                0x0200c460      0x1a0 dw_uart.o
                0x0200c460                UARTintHndl_1
 .text.mmc_sendcmd.constprop.5
                0x0200c600      0x38c dw_sdmmc.o
 .text.SDprepData.isra.1.constprop.6
                0x0200c98c      0x16c dw_sdmmc.o
 .text.mmc_sendcmd.constprop.3
                0x0200caf8      0x434 dw_sdmmc.o
 .text.mmc_sendcmd.constprop.2
                0x0200cf2c      0x434 dw_sdmmc.o
 .text.mmc_sendstatus
                0x0200d360      0x2cc dw_sdmmc.o
                0x0200d360                mmc_sendstatus
 .text.mmc_read
                0x0200d62c      0x354 dw_sdmmc.o
                0x0200d62c                mmc_read
 .text.mmc_write
                0x0200d980      0x3d0 dw_sdmmc.o
                0x0200d980                mmc_write
 .text.mmc_init
                0x0200dd50     0x123c dw_sdmmc.o
                0x0200dd50                mmc_init
 .text.mmc_blklen
                0x0200ef8c       0x10 dw_sdmmc.o
                0x0200ef8c                mmc_blklen
 .text.mmc_capacity
                0x0200ef9c       0x10 dw_sdmmc.o
                0x0200ef9c                mmc_capacity
 .text.MMCintHndl_0
                0x0200efac       0xa8 dw_sdmmc.o
                0x0200efac                MMCintHndl_0
 .text.alt_gpio_init
                0x0200f054       0x28 alt_generalpurpose_io.o
                0x0200f054                alt_gpio_init
 .text.alt_gpio_group_config
                0x0200f07c      0x41c alt_generalpurpose_io.o
                0x0200f07c                alt_gpio_group_config
 .text.netconn_new_with_proto_and_callback
                0x0200f498       0x6c api_lib.o
                0x0200f498                netconn_new_with_proto_and_callback
 .text.netconn_delete
                0x0200f504       0x38 api_lib.o
                0x0200f504                netconn_delete
 .text.netconn_bind
                0x0200f53c       0x50 api_lib.o
                0x0200f53c                netconn_bind
 .text.netconn_listen_with_backlog
                0x0200f58c       0x44 api_lib.o
                0x0200f58c                netconn_listen_with_backlog
 .text.netconn_accept
                0x0200f5d0       0xb8 api_lib.o
                0x0200f5d0                netconn_accept
 .text.netconn_recv
                0x0200f688      0x304 api_lib.o
                0x0200f688                netconn_recv
 .text.netconn_write_partly
                0x0200f98c       0xe0 api_lib.o
                0x0200f98c                netconn_write_partly
 .text.netconn_close
                0x0200fa6c       0x4c api_lib.o
                0x0200fa6c                netconn_close
 .text.recv_udp
                0x0200fab8       0x98 api_msg.o
 .text.recv_raw
                0x0200fb50       0xd0 api_msg.o
 .text.err_tcp  0x0200fc20       0xe8 api_msg.o
 .text.do_writemore
                0x0200fd08      0x244 api_msg.o
 .text.do_close_internal
                0x0200ff4c      0x1c8 api_msg.o
 .text.poll_tcp
                0x02010114       0x8c api_msg.o
 .text.netconn_drain
                0x020101a0      0x108 api_msg.o
 .text.sent_tcp
                0x020102a8       0x8c api_msg.o
 .text.recv_tcp
                0x02010334       0xbc api_msg.o
 .text.accept_function
                0x020103f0      0x1f0 api_msg.o
 .text.do_newconn
                0x020105e0      0x144 api_msg.o
                0x020105e0                do_newconn
 .text.netconn_alloc
                0x02010724       0xc8 api_msg.o
                0x02010724                netconn_alloc
 .text.netconn_free
                0x020107ec       0x28 api_msg.o
                0x020107ec                netconn_free
 .text.do_delconn
                0x02010814      0x108 api_msg.o
                0x02010814                do_delconn
 .text.do_bind  0x0201091c       0xcc api_msg.o
                0x0201091c                do_bind
 .text.do_listen
                0x020109e8      0x11c api_msg.o
                0x020109e8                do_listen
 .text.do_recv  0x02010b04       0x74 api_msg.o
                0x02010b04                do_recv
 .text.do_write
                0x02010b78       0x70 api_msg.o
                0x02010b78                do_write
 .text.do_close
                0x02010be8       0x98 api_msg.o
                0x02010be8                do_close
 .text.lwip_htons
                0x02010c80        0xc def.o
                0x02010c80                lwip_htons
 .text.lwip_ntohs
                0x02010c8c        0xc def.o
                0x02010c8c                lwip_ntohs
 .text.lwip_htonl
                0x02010c98        0x8 def.o
                0x02010c98                lwip_htonl
 .text.lwip_ntohl
                0x02010ca0        0x8 def.o
                0x02010ca0                lwip_ntohl
 .text.dhcp_create_msg
                0x02010ca8      0x7b8 dhcp.o
 .text.dhcp_rebind
                0x02011460      0x17c dhcp.o
 .text.dhcp_discover
                0x020115dc      0x1f8 dhcp.o
 .text.dhcp_select
                0x020117d4      0x2e0 dhcp.o
 .text.dhcp_reboot
                0x02011ab4      0x1f4 dhcp.o
 .text.dhcp_bind
                0x02011ca8      0x19c dhcp.o
 .text.dhcp_recv
                0x02011e44      0x8bc dhcp.o
 .text.dhcp_start
                0x02012700      0x144 dhcp.o
                0x02012700                dhcp_start
 .text.dhcp_arp_reply
                0x02012844      0x188 dhcp.o
                0x02012844                dhcp_arp_reply
 .text.dhcp_renew
                0x020129cc      0x178 dhcp.o
                0x020129cc                dhcp_renew
 .text.dhcp_coarse_tmr
                0x02012b44       0xa8 dhcp.o
                0x02012b44                dhcp_coarse_tmr
 .text.dhcp_release
                0x02012bec      0x17c dhcp.o
                0x02012bec                dhcp_release
 .text.dhcp_fine_tmr
                0x02012d68      0x13c dhcp.o
                0x02012d68                dhcp_fine_tmr
 .text.dhcp_stop
                0x02012ea4       0x50 dhcp.o
                0x02012ea4                dhcp_stop
 .text.etharp_find_entry
                0x02012ef4      0xa70 etharp.o
 .text.etharp_raw.constprop.0
                0x02013964      0x10c etharp.o
 .text.etharp_tmr
                0x02013a70       0xd4 etharp.o
                0x02013a70                etharp_tmr
 .text.etharp_cleanup_netif
                0x02013b44       0x9c etharp.o
                0x02013b44                etharp_cleanup_netif
 .text.etharp_query
                0x02013be0      0x228 etharp.o
                0x02013be0                etharp_query
 .text.etharp_output
                0x02013e08      0x40c etharp.o
                0x02013e08                etharp_output
 .text.etharp_request
                0x02014214      0x10c etharp.o
                0x02014214                etharp_request
 .text.ethernet_input
                0x02014320      0x388 etharp.o
                0x02014320                ethernet_input
 .text.EMACintHndl
                0x020146a8      0x114 ethernetif.o
 .text.ethernetif_4_init
                0x020147bc      0x180 ethernetif.o
 .text.low_level_output
                0x0201493c      0x138 ethernetif.o
 .text.ethernetif_input
                0x02014a74      0x184 ethernetif.o
 .text.ethernetif_0_init
                0x02014bf8      0x17c ethernetif.o
 .text.ethernetif_1_init
                0x02014d74      0x17c ethernetif.o
 .text.ethernetif_2_init
                0x02014ef0      0x180 ethernetif.o
 .text.ethernetif_3_init
                0x02015070      0x180 ethernetif.o
 .text.Emac0_IRQHandler
                0x020151f0        0x8 ethernetif.o
                0x020151f0                Emac0_IRQHandler
 .text.Emac1_IRQHandler
                0x020151f8        0x8 ethernetif.o
                0x020151f8                Emac1_IRQHandler
 .text.icmp_input
                0x02015200      0x1f0 icmp.o
                0x02015200                icmp_input
 .text.icmp_dest_unreach
                0x020153f0       0xd4 icmp.o
                0x020153f0                icmp_dest_unreach
 .text.icmp_time_exceeded
                0x020154c4       0xd4 icmp.o
                0x020154c4                icmp_time_exceeded
 .text.inet_chksum
                0x02015598      0x29c inet_chksum.o
                0x02015598                inet_chksum
 .text.inet_chksum_pbuf
                0x02015834      0x32c inet_chksum.o
                0x02015834                inet_chksum_pbuf
 .text.lwip_init
                0x02015b60       0x24 init.o
                0x02015b60                lwip_init
 .text.ip_route
                0x02015b84       0x68 ip.o
                0x02015b84                ip_route
 .text.ip_input
                0x02015bec      0x2bc ip.o
                0x02015bec                ip_input
 .text.ip_output_if
                0x02015ea8      0x188 ip.o
                0x02015ea8                ip_output_if
 .text.ip_output
                0x02016030       0x8c ip.o
                0x02016030                ip_output
 .text.ip4_addr_isbroadcast
                0x020160bc       0x58 ip_addr.o
                0x020160bc                ip4_addr_isbroadcast
 .text.ipfrag_free_pbuf_custom
                0x02016114       0x28 ip_frag.o
 .text.ip_reass_remove_oldest_datagram
                0x0201613c      0x23c ip_frag.o
 .text.ip_reass_tmr
                0x02016378      0x144 ip_frag.o
                0x02016378                ip_reass_tmr
 .text.ip_reass
                0x020164bc      0x62c ip_frag.o
                0x020164bc                ip_reass
 .text.ip_frag  0x02016ae8      0x294 ip_frag.o
                0x02016ae8                ip_frag
 *fill*         0x02016d7c        0x4 
 .text.mem_init
                0x02016d80       0x74 mem.o
                0x02016d80                mem_init
 .text.mem_free
                0x02016df4      0x10c mem.o
                0x02016df4                mem_free
 .text.mem_trim
                0x02016f00      0x160 mem.o
                0x02016f00                mem_trim
 .text.mem_malloc
                0x02017060      0x160 mem.o
                0x02017060                mem_malloc
 .text.memp_init
                0x020171c0       0x9c memp.o
                0x020171c0                memp_init
 .text.memp_malloc
                0x0201725c       0x30 memp.o
                0x0201725c                memp_malloc
 .text.memp_free
                0x0201728c       0x30 memp.o
                0x0201728c                memp_free
 .text.netbuf_delete
                0x020172bc       0x38 netbuf.o
                0x020172bc                netbuf_delete
 .text.netif_init
                0x020172f4        0x4 netif.o
                0x020172f4                netif_init
 .text.netif_add
                0x020172f8      0x13c netif.o
                0x020172f8                netif_add
 .text.netif_set_addr
                0x02017434       0xe0 netif.o
                0x02017434                netif_set_addr
 .text.netif_set_ipaddr
                0x02017514       0xc0 netif.o
                0x02017514                netif_set_ipaddr
 .text.netif_set_gw
                0x020175d4       0x10 netif.o
                0x020175d4                netif_set_gw
 .text.netif_set_netmask
                0x020175e4       0x10 netif.o
                0x020175e4                netif_set_netmask
 .text.netif_set_default
                0x020175f4       0x10 netif.o
                0x020175f4                netif_set_default
 .text.netif_set_up
                0x02017604       0x28 netif.o
                0x02017604                netif_set_up
 .text.netif_set_down
                0x0201762c       0x20 netif.o
                0x0201762c                netif_set_down
 .text.pbuf_free_ooseq_callback
                0x0201764c       0x60 pbuf.o
 .text.pbuf_alloc
                0x020176ac      0x2ec pbuf.o
                0x020176ac                pbuf_alloc
 .text.pbuf_alloced_custom
                0x02017998       0x94 pbuf.o
                0x02017998                pbuf_alloced_custom
 .text.pbuf_realloc
                0x02017a2c      0x130 pbuf.o
                0x02017a2c                pbuf_realloc
 .text.pbuf_header
                0x02017b5c       0xc0 pbuf.o
                0x02017b5c                pbuf_header
 .text.pbuf_free
                0x02017c1c       0xb0 pbuf.o
                0x02017c1c                pbuf_free
 .text.pbuf_clen
                0x02017ccc       0x2c pbuf.o
                0x02017ccc                pbuf_clen
 .text.pbuf_ref
                0x02017cf8       0x24 pbuf.o
                0x02017cf8                pbuf_ref
 .text.pbuf_cat
                0x02017d1c       0x58 pbuf.o
                0x02017d1c                pbuf_cat
 .text.pbuf_chain
                0x02017d74       0x70 pbuf.o
                0x02017d74                pbuf_chain
 .text.pbuf_copy
                0x02017de4       0x88 pbuf.o
                0x02017de4                pbuf_copy
 .text.pbuf_copy_partial
                0x02017e6c       0x9c pbuf.o
                0x02017e6c                pbuf_copy_partial
 .text.raw_input
                0x02017f08       0xc8 raw.o
                0x02017f08                raw_input
 .text.raw_bind
                0x02017fd0       0x14 raw.o
                0x02017fd0                raw_bind
 .text.raw_recv
                0x02017fe4        0xc raw.o
                0x02017fe4                raw_recv
 .text.raw_remove
                0x02017ff0       0x60 raw.o
                0x02017ff0                raw_remove
 .text.raw_new  0x02018050       0x4c raw.o
                0x02018050                raw_new
 .text.TaskTrampoline
                0x0201809c       0x30 sys_arch.o
 .text.sys_mbox_new
                0x020180cc      0x2c8 sys_arch.o
                0x020180cc                sys_mbox_new
 .text.sys_mbox_free
                0x02018394      0x1c0 sys_arch.o
                0x02018394                sys_mbox_free
 .text.sys_mbox_post
                0x02018554        0xc sys_arch.o
                0x02018554                sys_mbox_post
 .text.sys_mbox_trypost
                0x02018560       0x20 sys_arch.o
                0x02018560                sys_mbox_trypost
 .text.sys_arch_mbox_fetch
                0x02018580       0x80 sys_arch.o
                0x02018580                sys_arch_mbox_fetch
 .text.sys_arch_mbox_tryfetch
                0x02018600       0x28 sys_arch.o
                0x02018600                sys_arch_mbox_tryfetch
 .text.sys_sem_new
                0x02018628      0x1ec sys_arch.o
                0x02018628                sys_sem_new
 .text.sys_arch_sem_wait
                0x02018814       0x7c sys_arch.o
                0x02018814                sys_arch_sem_wait
 .text.sys_sem_signal
                0x02018890       0x10 sys_arch.o
                0x02018890                sys_sem_signal
 .text.sys_sem_free
                0x020188a0      0x1b0 sys_arch.o
                0x020188a0                sys_sem_free
 .text.sys_mutex_new
                0x02018a50      0x1f4 sys_arch.o
                0x02018a50                sys_mutex_new
 .text.sys_mutex_lock
                0x02018c44       0x10 sys_arch.o
                0x02018c44                sys_mutex_lock
 .text.sys_mutex_unlock
                0x02018c54       0x10 sys_arch.o
                0x02018c54                sys_mutex_unlock
 .text.sys_init
                0x02018c64      0x104 sys_arch.o
                0x02018c64                sys_init
 .text.sys_thread_new
                0x02018d68      0x210 sys_arch.o
                0x02018d68                sys_thread_new
 .text.sys_arch_protect
                0x02018f78       0x58 sys_arch.o
                0x02018f78                sys_arch_protect
 .text.sys_arch_unprotect
                0x02018fd0       0x48 sys_arch.o
                0x02018fd0                sys_arch_unprotect
 .text.tcp_accept_null
                0x02019018        0x8 tcp.o
 .text.tcp_pcb_purge.part.1
                0x02019020       0xe0 tcp.o
 .text.tcp_close_shutdown
                0x02019100      0x3dc tcp.o
 .text.tcp_recv_null
                0x020194dc       0xdc tcp.o
                0x020194dc                tcp_recv_null
 .text.tcp_init
                0x020195b8        0x4 tcp.o
                0x020195b8                tcp_init
 .text.tcp_close
                0x020195bc      0x43c tcp.o
                0x020195bc                tcp_close
 .text.tcp_shutdown
                0x020199f8       0xf8 tcp.o
                0x020199f8                tcp_shutdown
 .text.tcp_abandon
                0x02019af0      0x2b0 tcp.o
                0x02019af0                tcp_abandon
 .text.tcp_abort
                0x02019da0        0x8 tcp.o
                0x02019da0                tcp_abort
 .text.tcp_bind
                0x02019da8      0x138 tcp.o
                0x02019da8                tcp_bind
 .text.tcp_listen_with_backlog
                0x02019ee0      0x138 tcp.o
                0x02019ee0                tcp_listen_with_backlog
 .text.tcp_update_rcv_ann_wnd
                0x0201a018       0x64 tcp.o
                0x0201a018                tcp_update_rcv_ann_wnd
 .text.tcp_recved
                0x0201a07c       0xa0 tcp.o
                0x0201a07c                tcp_recved
 .text.tcp_slowtmr
                0x0201a11c      0x504 tcp.o
                0x0201a11c                tcp_slowtmr
 .text.tcp_process_refused_data
                0x0201a620      0x144 tcp.o
                0x0201a620                tcp_process_refused_data
 .text.tcp_tmr  0x0201a764       0xd0 tcp.o
                0x0201a764                tcp_tmr
 .text.tcp_segs_free
                0x0201a834       0x38 tcp.o
                0x0201a834                tcp_segs_free
 .text.tcp_seg_free
                0x0201a86c       0x2c tcp.o
                0x0201a86c                tcp_seg_free
 .text.tcp_seg_copy
                0x0201a898       0x34 tcp.o
                0x0201a898                tcp_seg_copy
 .text.tcp_alloc
                0x0201a8cc      0x1dc tcp.o
                0x0201a8cc                tcp_alloc
 .text.tcp_new  0x0201aaa8      0x1d8 tcp.o
                0x0201aaa8                tcp_new
 .text.tcp_arg  0x0201ac80        0x8 tcp.o
                0x0201ac80                tcp_arg
 .text.tcp_recv
                0x0201ac88        0x8 tcp.o
                0x0201ac88                tcp_recv
 .text.tcp_sent
                0x0201ac90        0x8 tcp.o
                0x0201ac90                tcp_sent
 .text.tcp_err  0x0201ac98        0x8 tcp.o
                0x0201ac98                tcp_err
 .text.tcp_accept
                0x0201aca0        0x8 tcp.o
                0x0201aca0                tcp_accept
 .text.tcp_poll
                0x0201aca8        0xc tcp.o
                0x0201aca8                tcp_poll
 .text.tcp_pcb_purge
                0x0201acb4       0x14 tcp.o
                0x0201acb4                tcp_pcb_purge
 .text.tcp_pcb_remove
                0x0201acc8       0xec tcp.o
                0x0201acc8                tcp_pcb_remove
 .text.tcp_eff_send_mss
                0x0201adb4       0x44 tcp.o
                0x0201adb4                tcp_eff_send_mss
 .text.tcp_oos_insert_segment
                0x0201adf8      0x164 tcp_in.o
 .text.tcp_receive
                0x0201af5c      0xee8 tcp_in.o
 .text.tcp_parseopt.isra.0
                0x0201be44       0xfc tcp_in.o
 .text.tcp_input
                0x0201bf40      0xe5c tcp_in.o
                0x0201bf40                tcp_input
 .text.tcp_send_fin
                0x0201cd9c      0x230 tcp_out.o
                0x0201cd9c                tcp_send_fin
 .text.tcp_write
                0x0201cfcc      0x728 tcp_out.o
                0x0201cfcc                tcp_write
 .text.tcp_enqueue_flags
                0x0201d6f4      0x214 tcp_out.o
                0x0201d6f4                tcp_enqueue_flags
 .text.tcp_send_empty_ack
                0x0201d908      0x144 tcp_out.o
                0x0201d908                tcp_send_empty_ack
 .text.tcp_output
                0x0201da4c      0x53c tcp_out.o
                0x0201da4c                tcp_output
 .text.tcp_rst  0x0201df88      0x12c tcp_out.o
                0x0201df88                tcp_rst
 .text.tcp_rexmit_rto
                0x0201e0b4       0x58 tcp_out.o
                0x0201e0b4                tcp_rexmit_rto
 .text.tcp_rexmit
                0x0201e10c       0xc8 tcp_out.o
                0x0201e10c                tcp_rexmit
 .text.tcp_rexmit_fast
                0x0201e1d4      0x118 tcp_out.o
                0x0201e1d4                tcp_rexmit_fast
 .text.tcp_keepalive
                0x0201e2ec      0x138 tcp_out.o
                0x0201e2ec                tcp_keepalive
 .text.tcp_zero_window_probe
                0x0201e424      0x1f0 tcp_out.o
                0x0201e424                tcp_zero_window_probe
 .text.tcpip_thread
                0x0201e614      0x118 tcpip.o
 .text.tcpip_input
                0x0201e72c       0x78 tcpip.o
                0x0201e72c                tcpip_input
 .text.tcpip_callback_with_block
                0x0201e7a4       0x98 tcpip.o
                0x0201e7a4                tcpip_callback_with_block
 .text.tcpip_apimsg
                0x0201e83c       0x64 tcpip.o
                0x0201e83c                tcpip_apimsg
 .text.tcpip_init
                0x0201e8a0       0x64 tcpip.o
                0x0201e8a0                tcpip_init
 .text.dhcp_timer_fine
                0x0201e904       0xb0 timers.o
 .text.ip_reass_timer
                0x0201e9b4       0xb0 timers.o
 .text.arp_timer
                0x0201ea64       0xb4 timers.o
 .text.dhcp_timer_coarse
                0x0201eb18       0xb4 timers.o
 .text.tcpip_tcp_timer
                0x0201ebcc       0xe8 timers.o
 .text.tcp_timer_needed
                0x0201ecb4       0xf8 timers.o
                0x0201ecb4                tcp_timer_needed
 .text.sys_timeouts_init
                0x0201edac      0x2ac timers.o
                0x0201edac                sys_timeouts_init
 .text.sys_timeout
                0x0201f058       0xac timers.o
                0x0201f058                sys_timeout
 .text.sys_untimeout
                0x0201f104       0x88 timers.o
                0x0201f104                sys_untimeout
 .text.sys_timeouts_mbox_fetch
                0x0201f18c       0xac timers.o
                0x0201f18c                sys_timeouts_mbox_fetch
 .text.udp_init
                0x0201f238        0x4 udp.o
                0x0201f238                udp_init
 .text.udp_input
                0x0201f23c      0x2fc udp.o
                0x0201f23c                udp_input
 .text.udp_bind
                0x0201f538      0x12c udp.o
                0x0201f538                udp_bind
 .text.udp_sendto_if
                0x0201f664      0x168 udp.o
                0x0201f664                udp_sendto_if
 .text.udp_connect
                0x0201f7cc       0xa0 udp.o
                0x0201f7cc                udp_connect
 .text.udp_recv
                0x0201f86c        0xc udp.o
                0x0201f86c                udp_recv
 .text.udp_remove
                0x0201f878       0x60 udp.o
                0x0201f878                udp_remove
 .text.udp_new  0x0201f8d8       0x30 udp.o
                0x0201f8d8                udp_new
 .text.ff_cre_syncobj
                0x0201f908       0xc0 Abassi_FatFS.o
                0x0201f908                ff_cre_syncobj
 .text.ff_del_syncobj
                0x0201f9c8       0x14 Abassi_FatFS.o
                0x0201f9c8                ff_del_syncobj
 .text.ff_req_grant
                0x0201f9dc       0x20 Abassi_FatFS.o
                0x0201f9dc                ff_req_grant
 .text.ff_rel_grant
                0x0201f9fc       0x10 Abassi_FatFS.o
                0x0201f9fc                ff_rel_grant
 .text.ff_memalloc
                0x0201fa0c        0x4 Abassi_FatFS.o
                0x0201fa0c                ff_memalloc
 .text.ff_memfree
                0x0201fa10        0x4 Abassi_FatFS.o
                0x0201fa10                ff_memfree
 .text.disk_status
                0x0201fa14       0x24 Media_FatFS.o
                0x0201fa14                disk_status
 .text.disk_initialize
                0x0201fa38       0x20 Media_FatFS.o
                0x0201fa38                disk_initialize
 .text.disk_read
                0x0201fa58       0x38 Media_FatFS.o
                0x0201fa58                disk_read
 .text.disk_write
                0x0201fa90       0x38 Media_FatFS.o
                0x0201fa90                disk_write
 .text.disk_ioctl
                0x0201fac8       0xbc Media_FatFS.o
                0x0201fac8                disk_ioctl
 .text.MEDIAstatus
                0x0201fb84       0x50 MediaIF.o
                0x0201fb84                MEDIAstatus
 .text.MEDIAinit
                0x0201fbd4       0x9c MediaIF.o
                0x0201fbd4                MEDIAinit
 .text.MEDIAread
                0x0201fc70      0x118 MediaIF.o
                0x0201fc70                MEDIAread
 .text.MEDIAwrite
                0x0201fd88      0x118 MediaIF.o
                0x0201fd88                MEDIAwrite
 .text.MEDIAsize
                0x0201fea0       0x64 MediaIF.o
                0x0201fea0                MEDIAsize
 .text.MEDIAblksize
                0x0201ff04       0x50 MediaIF.o
                0x0201ff04                MEDIAblksize
 .text.MEDIAsectsz
                0x0201ff54       0x48 MediaIF.o
                0x0201ff54                MEDIAsectsz
 .text.MEDIAinfo
                0x0201ff9c       0x2c MediaIF.o
                0x0201ff9c                MEDIAinfo
 .text.mem_cpy.part.0
                0x0201ffc8      0x198 ff.o
 .text.init_alloc_info.isra.5
                0x02020160       0xd0 ff.o
 .text.get_fileinfo
                0x02020230      0x554 ff.o
 .text.move_window
                0x02020784       0xbc ff.o
 .text.get_fat  0x02020840      0x274 ff.o
 .text.dir_next.constprop.16
                0x02020ab4      0x124 ff.o
 .text.sync_fs  0x02020bd8      0x16c ff.o
 .text.dir_clear
                0x02020d44      0x1bc ff.o
 .text.check_fs
                0x02020f00      0x18c ff.o
 .text.find_volume
                0x0202108c      0x964 ff.o
 .text.load_xdir
                0x020219f0      0x354 ff.o
 .text.dir_read.constprop.15
                0x02021d44      0x72c ff.o
 .text.put_fat.part.9
                0x02022470      0x444 ff.o
 .text.create_chain
                0x020228b4      0x850 ff.o
 .text.remove_chain
                0x02023104      0x778 ff.o
 .text.dir_sdi  0x0202387c      0x564 ff.o
 .text.dir_alloc
                0x02023de0      0x2fc ff.o
 .text.store_xdir
                0x020240dc      0x318 ff.o
 .text.dir_remove
                0x020243f4      0x264 ff.o
 .text.dir_find
                0x02024658      0x68c ff.o
 .text.dir_register
                0x02024ce4      0xec0 ff.o
 .text.follow_path
                0x02025ba4      0x73c ff.o
 .text.f_mount  0x020262e0      0x1b4 ff.o
                0x020262e0                f_mount
 .text.f_open   0x02026494      0xa94 ff.o
                0x02026494                f_open
 .text.f_read   0x02026f28      0x730 ff.o
                0x02026f28                f_read
 .text.f_write  0x02027658      0x784 ff.o
                0x02027658                f_write
 .text.f_close  0x02027ddc      0x5f4 ff.o
                0x02027ddc                f_close
 .text.f_chdrive
                0x020283d0       0x80 ff.o
                0x020283d0                f_chdrive
 .text.f_chdir  0x02028450      0x1bc ff.o
                0x02028450                f_chdir
 .text.f_getcwd
                0x0202860c      0x4a4 ff.o
                0x0202860c                f_getcwd
 .text.f_opendir
                0x02028ab0      0x454 ff.o
                0x02028ab0                f_opendir
 .text.f_readdir
                0x02028f04      0x150 ff.o
                0x02028f04                f_readdir
 .text.f_stat   0x02029054       0xe8 ff.o
                0x02029054                f_stat
 .text.f_getfree
                0x0202913c      0x3a0 ff.o
                0x0202913c                f_getfree
 .text.f_unlink
                0x020294dc      0x380 ff.o
                0x020294dc                f_unlink
 .text.f_mkdir  0x0202985c      0x420 ff.o
                0x0202985c                f_mkdir
 .text.f_rename
                0x02029c7c      0x61c ff.o
                0x02029c7c                f_rename
 .text.f_chmod  0x0202a298      0x14c ff.o
                0x0202a298                f_chmod
 *fill*         0x0202a3e4        0x4 
 .text.f_mkfs   0x0202a3e8     0x178c ff.o
                0x0202a3e8                f_mkfs
 .text.ff_uni2oem
                0x0202bb74       0x68 ffunicode.o
                0x0202bb74                ff_uni2oem
 .text.ff_oem2uni
                0x0202bbdc       0x3c ffunicode.o
                0x0202bbdc                ff_oem2uni
 .text.ff_wtoupper
                0x0202bc18      0x134 ffunicode.o
                0x0202bc18                ff_wtoupper
 .text.fs_open  0x0202bd4c      0x22c fs.o
                0x0202bd4c                fs_open
 .text.fs_close
                0x0202bf78       0xdc fs.o
                0x0202bf78                fs_close
 .text.fs_read  0x0202c054       0x54 fs.o
                0x0202c054                fs_read
 .text.TSKcreate.constprop.6
                0x0202c0a8      0x100 ../../mAbassi/Platform/lib\lib_mAbassi_EVAL_R_GCC_AR5_CY5.a(mAbassi_EVAL_A9_GCC_2.o)
 .text.TSKgetID
                0x0202c1a8       0x60 ../../mAbassi/Platform/lib\lib_mAbassi_EVAL_R_GCC_AR5_CY5.a(mAbassi_EVAL_A9_GCC_2.o)
                0x0202c1a8                TSKgetID
 .text.TSKstkChk
                0x0202c208       0x60 ../../mAbassi/Platform/lib\lib_mAbassi_EVAL_R_GCC_AR5_CY5.a(mAbassi_EVAL_A9_GCC_2.o)
                0x0202c208                TSKstkChk
 .text.__getreent
                0x0202c268       0x34 ../../mAbassi/Platform/lib\lib_mAbassi_EVAL_R_GCC_AR5_CY5.a(mAbassi_EVAL_A9_GCC_2.o)
                0x0202c268                __getreent
 *fill*         0x0202c29c        0x4 
 .text.Abassi   0x0202c2a0     0x2850 ../../mAbassi/Platform/lib\lib_mAbassi_EVAL_R_GCC_AR5_CY5.a(mAbassi_EVAL_A9_GCC_2.o)
                0x0202c2a0                Abassi
 .text.TSKstart
                0x0202eaf0       0x60 ../../mAbassi/Platform/lib\lib_mAbassi_EVAL_R_GCC_AR5_CY5.a(mAbassi_EVAL_A9_GCC_2.o)
                0x0202eaf0                TSKstart
 .text.SEM__open
                0x0202eb50      0x144 ../../mAbassi/Platform/lib\lib_mAbassi_EVAL_R_GCC_AR5_CY5.a(mAbassi_EVAL_A9_GCC_2.o)
                0x0202eb50                SEM__open
 .text.MBX__open
                0x0202ec94      0x154 ../../mAbassi/Platform/lib\lib_mAbassi_EVAL_R_GCC_AR5_CY5.a(mAbassi_EVAL_A9_GCC_2.o)
                0x0202ec94                MBX__open
 .text.MBXget   0x0202ede8      0x128 ../../mAbassi/Platform/lib\lib_mAbassi_EVAL_R_GCC_AR5_CY5.a(mAbassi_EVAL_A9_GCC_2.o)
                0x0202ede8                MBXget
 .text.MBXput   0x0202ef10       0xd8 ../../mAbassi/Platform/lib\lib_mAbassi_EVAL_R_GCC_AR5_CY5.a(mAbassi_EVAL_A9_GCC_2.o)
                0x0202ef10                MBXput
 .text.OSalloc  0x0202efe8       0x68 ../../mAbassi/Platform/lib\lib_mAbassi_EVAL_R_GCC_AR5_CY5.a(mAbassi_EVAL_A9_GCC_2.o)
                0x0202efe8                OSalloc
 .text.__generic_gxx_recursive_mutex_destroy
                0x0202f050       0x78 ../../mAbassi/Platform/lib\lib_mAbassi_EVAL_R_GCC_AR5_CY5.a(mAbassi_EVAL_A9_GCC_2.o)
                0x0202f050                __generic_gxx_recursive_mutex_destroy
 .text.__generic_gxx_recursive_mutex_unlock
                0x0202f0c8       0x3c ../../mAbassi/Platform/lib\lib_mAbassi_EVAL_R_GCC_AR5_CY5.a(mAbassi_EVAL_A9_GCC_2.o)
                0x0202f0c8                __generic_gxx_recursive_mutex_unlock
 .text.__malloc_lock
                0x0202f104       0x44 ../../mAbassi/Platform/lib\lib_mAbassi_EVAL_R_GCC_AR5_CY5.a(mAbassi_EVAL_A9_GCC_2.o)
                0x0202f104                __malloc_lock
 .text.__malloc_unlock
                0x0202f148       0x2c ../../mAbassi/Platform/lib\lib_mAbassi_EVAL_R_GCC_AR5_CY5.a(mAbassi_EVAL_A9_GCC_2.o)
                0x0202f148                __malloc_unlock
 *fill*         0x0202f174        0x4 
 .text.TSKcreate
                0x0202f178      0x468 ../../mAbassi/Platform/lib\lib_mAbassi_EVAL_R_GCC_AR5_CY5.a(mAbassi_EVAL_A9_GCC_2.o)
                0x0202f178                TSKcreate
 .text.OSstart  0x0202f5e0      0x208 ../../mAbassi/Platform/lib\lib_mAbassi_EVAL_R_GCC_AR5_CY5.a(mAbassi_EVAL_A9_GCC_2.o)
                0x0202f5e0                OSstart
 .text.__generic_gxx_recursive_mutex_init_function
                0x0202f7e8      0x128 ../../mAbassi/Platform/lib\lib_mAbassi_EVAL_R_GCC_AR5_CY5.a(mAbassi_EVAL_A9_GCC_2.o)
                0x0202f7e8                __generic_gxx_recursive_mutex_init_function
 .text.__my_gxx_lock.part.2
                0x0202f910      0x1b8 ../../mAbassi/Platform/lib\lib_mAbassi_EVAL_R_GCC_AR5_CY5.a(mAbassi_EVAL_A9_GCC_2.o)
 .text.__generic_gxx_recursive_mutex_lock
                0x0202fac8       0x2c ../../mAbassi/Platform/lib\lib_mAbassi_EVAL_R_GCC_AR5_CY5.a(mAbassi_EVAL_A9_GCC_2.o)
                0x0202fac8                __generic_gxx_recursive_mutex_lock
 .text.TIMtick  0x0202faf4      0x4a0 ../../mAbassi/Platform/lib\lib_mAbassi_EVAL_R_GCC_AR5_CY5.a(mAbassi_EVAL_A9_GCC_2.o)
                0x0202faf4                TIMtick
 .text          0x0202ff94      0xb8c ../../mAbassi/Platform/lib\lib_mAbassi_EVAL_R_GCC_AR5_CY5.a(mAbassi_EVAL_GCC_AR5_CY5.o)
                0x0202ffa4                __cs3_reset_generic
                0x0202ffa4                Reset_Handler
                0x0202ffa4                boot
                0x0202ffa4                _prestart
                0x0203034c                _exit
                0x02030354                _sbrk_r
                0x0203038c                OStrap
                0x020303a4                mySWI
                0x020303a4                __cs3_isr_swi
                0x020303ec                SWI_Handler
                0x020303f0                OScontext
                0x02030410                CoreContext
                0x02030424                OSstack
                0x02030480                OSintCtrl
                0x020304a0                OSintBack
                0x020304b0                OSintOff
                0x020304bc                OSintOn
                0x020304c4                OSisrInfo
                0x020304d4                __cs3_isr_irq
                0x020304d4                ISRdispatch
                0x02030608                OSinvalidISR
                0x02030610                COREgetPeriph
                0x02030618                COREgetID
                0x02030624                GICinit
                0x020306c8                GICenable
                0x02030808                COREreentOK
                0x0203084c                COREstart1
                0x02030858                COREstart2
                0x02030864                COREstart3
                0x02030870                COREstart0
                0x0203087c                CoreIdle
                0x020308ac                COREsafeGetID
                0x020308d0                COREsendISR
                0x02030904                COREwakeISR
                0x02030930                COREisInISR
                0x02030944                COREtaskNow
                0x02030968                COREchkRedo
                0x020309c8                CORElock
                0x020309f8                COREunlock
                0x02030a0c                SPINlock
                0x02030a1c                SPINtrylock
                0x02030a2c                SPIN_lock
                0x02030ab4                SPINunlock
 .text          0x02030b20      0x798 ../../mAbassi/Platform/lib\lib_mAbassi_EVAL_R_GCC_AR5_CY5.a(ARMv7_SMP_L1_L2_GCC_AR5_CY5.o)
                0x02030b20                COREcacheON
                0x02030fac                DCacheInvalRange
                0x020310c0                DCacheFlushRange
                0x020311d4                MMUlog2Phy
                0x02031234                MMUphy2Log
 .text          0x020312b8       0x4c c:/intelfpga/18.0/embedded/host_tools/mentor/gnu/arm/baremetal/bin/../lib/gcc/arm-altera-eabi/6.2.0/../../../../arm-altera-eabi/lib\libcs3.a(start_c.o)
                0x020312b8                __cs3_premain
 .text          0x02031304      0x114 c:/intelfpga/18.0/embedded/host_tools/mentor/gnu/arm/baremetal/bin/../lib/gcc/arm-altera-eabi/6.2.0\libgcc.a(_udivsi3.o)
                0x02031304                __aeabi_uidiv
                0x02031304                __udivsi3
                0x020313f8                __aeabi_uidivmod
 .text          0x02031418      0x148 c:/intelfpga/18.0/embedded/host_tools/mentor/gnu/arm/baremetal/bin/../lib/gcc/arm-altera-eabi/6.2.0\libgcc.a(_divsi3.o)
                0x02031418                __divsi3
                0x02031418                __aeabi_idiv
                0x02031540                __aeabi_idivmod
 .text          0x02031560        0x4 c:/intelfpga/18.0/embedded/host_tools/mentor/gnu/arm/baremetal/bin/../lib/gcc/arm-altera-eabi/6.2.0\libgcc.a(_dvmd_tls.o)
                0x02031560                __aeabi_idiv0
                0x02031560                __aeabi_ldiv0
 .text          0x02031564       0xd4 c:/intelfpga/18.0/embedded/host_tools/mentor/gnu/arm/baremetal/bin/../lib/gcc/arm-altera-eabi/6.2.0\libgcc.a(_aeabi_ldivmod.o)
                0x02031564                __aeabi_ldivmod
 .text          0x02031638       0x3c c:/intelfpga/18.0/embedded/host_tools/mentor/gnu/arm/baremetal/bin/../lib/gcc/arm-altera-eabi/6.2.0\libgcc.a(_aeabi_uldivmod.o)
                0x02031638                __aeabi_uldivmod
 .text          0x02031674      0x12c c:/intelfpga/18.0/embedded/host_tools/mentor/gnu/arm/baremetal/bin/../lib/gcc/arm-altera-eabi/6.2.0\libgcc.a(_udivmoddi4.o)
                0x02031674                __udivmoddi4
 .text          0x020317a0       0x28 c:/intelfpga/18.0/embedded/host_tools/mentor/gnu/arm/baremetal/bin/../lib/gcc/arm-altera-eabi/6.2.0\libgcc.a(_clzdi2.o)
                0x020317a0                __clzdi2
 .text          0x020317c8       0x48 c:/intelfpga/18.0/embedded/host_tools/mentor/gnu/arm/baremetal/bin/../lib/gcc/arm-altera-eabi/6.2.0\libgcc.a(_clzsi2.o)
                0x020317c8                __clzsi2
 .text          0x02031810       0x24 c:/intelfpga/18.0/embedded/host_tools/mentor/gnu/arm/baremetal/bin/../lib/gcc/arm-altera-eabi/6.2.0/../../../../arm-altera-eabi/lib\libc.a(lib_a-calloc.o)
                0x02031810                calloc
 .text          0x02031834       0x98 c:/intelfpga/18.0/embedded/host_tools/mentor/gnu/arm/baremetal/bin/../lib/gcc/arm-altera-eabi/6.2.0/../../../../arm-altera-eabi/lib\libc.a(lib_a-callocr.o)
                0x02031834                _calloc_r
 .text          0x020318cc      0x164 c:/intelfpga/18.0/embedded/host_tools/mentor/gnu/arm/baremetal/bin/../lib/gcc/arm-altera-eabi/6.2.0/../../../../arm-altera-eabi/lib\libc.a(lib_a-fwrite.o)
                0x020318cc                _fwrite_r
                0x020319f4                fwrite
 .text          0x02031a30      0x12c c:/intelfpga/18.0/embedded/host_tools/mentor/gnu/arm/baremetal/bin/../lib/gcc/arm-altera-eabi/6.2.0/../../../../arm-altera-eabi/lib\libc.a(lib_a-gets.o)
                0x02031a30                _gets_r
                0x02031b44                gets
 .text          0x02031b5c       0x80 c:/intelfpga/18.0/embedded/host_tools/mentor/gnu/arm/baremetal/bin/../lib/gcc/arm-altera-eabi/6.2.0/../../../../arm-altera-eabi/lib\libc.a(lib_a-init.o)
                0x02031b5c                __libc_init_array
 .text          0x02031bdc       0x38 c:/intelfpga/18.0/embedded/host_tools/mentor/gnu/arm/baremetal/bin/../lib/gcc/arm-altera-eabi/6.2.0/../../../../arm-altera-eabi/lib\libc.a(lib_a-malloc.o)
                0x02031bdc                malloc
                0x02031bf8                free
 .text          0x02031c14      0x750 c:/intelfpga/18.0/embedded/host_tools/mentor/gnu/arm/baremetal/bin/../lib/gcc/arm-altera-eabi/6.2.0/../../../../arm-altera-eabi/lib\libc.a(lib_a-mallocr.o)
                0x02031c14                _malloc_r
 .text          0x02032364       0xf0 c:/intelfpga/18.0/embedded/host_tools/mentor/gnu/arm/baremetal/bin/../lib/gcc/arm-altera-eabi/6.2.0/../../../../arm-altera-eabi/lib\libc.a(lib_a-memcmp.o)
                0x02032364                memcmp
 .text          0x02032454      0x114 c:/intelfpga/18.0/embedded/host_tools/mentor/gnu/arm/baremetal/bin/../lib/gcc/arm-altera-eabi/6.2.0/../../../../arm-altera-eabi/lib\libc.a(lib_a-memcpy-stub.o)
                0x02032454                memcpy
 .text          0x02032568      0x148 c:/intelfpga/18.0/embedded/host_tools/mentor/gnu/arm/baremetal/bin/../lib/gcc/arm-altera-eabi/6.2.0/../../../../arm-altera-eabi/lib\libc.a(lib_a-memmove.o)
                0x02032568                memmove
 .text          0x020326b0      0x114 c:/intelfpga/18.0/embedded/host_tools/mentor/gnu/arm/baremetal/bin/../lib/gcc/arm-altera-eabi/6.2.0/../../../../arm-altera-eabi/lib\libc.a(lib_a-memset.o)
                0x020326b0                memset
 .text          0x020327c4       0x6c c:/intelfpga/18.0/embedded/host_tools/mentor/gnu/arm/baremetal/bin/../lib/gcc/arm-altera-eabi/6.2.0/../../../../arm-altera-eabi/lib\libc.a(lib_a-printf.o)
                0x020327c4                _printf_r
                0x020327f8                printf
 .text          0x02032830       0x34 c:/intelfpga/18.0/embedded/host_tools/mentor/gnu/arm/baremetal/bin/../lib/gcc/arm-altera-eabi/6.2.0/../../../../arm-altera-eabi/lib\libc.a(lib_a-putchar.o)
                0x02032830                _putchar_r
                0x02032844                putchar
 .text          0x02032864      0x12c c:/intelfpga/18.0/embedded/host_tools/mentor/gnu/arm/baremetal/bin/../lib/gcc/arm-altera-eabi/6.2.0/../../../../arm-altera-eabi/lib\libc.a(lib_a-puts.o)
                0x02032864                _puts_r
                0x02032978                puts
 .text          0x02032990       0x24 c:/intelfpga/18.0/embedded/host_tools/mentor/gnu/arm/baremetal/bin/../lib/gcc/arm-altera-eabi/6.2.0/../../../../arm-altera-eabi/lib\libc.a(lib_a-realloc.o)
                0x02032990                realloc
 .text          0x020329b4      0x4d4 c:/intelfpga/18.0/embedded/host_tools/mentor/gnu/arm/baremetal/bin/../lib/gcc/arm-altera-eabi/6.2.0/../../../../arm-altera-eabi/lib\libc.a(lib_a-reallocr.o)
                0x020329b4                _realloc_r
 .text          0x02032e88       0x6c c:/intelfpga/18.0/embedded/host_tools/mentor/gnu/arm/baremetal/bin/../lib/gcc/arm-altera-eabi/6.2.0/../../../../arm-altera-eabi/lib\libc.a(lib_a-rget.o)
                0x02032e88                __srget_r
                0x02032edc                __srget
 .text          0x02032ef4      0x258 c:/intelfpga/18.0/embedded/host_tools/mentor/gnu/arm/baremetal/bin/../lib/gcc/arm-altera-eabi/6.2.0/../../../../arm-altera-eabi/lib\libc.a(lib_a-setvbuf.o)
                0x02032ef4                setvbuf
 .text          0x0203314c       0xcc c:/intelfpga/18.0/embedded/host_tools/mentor/gnu/arm/baremetal/bin/../lib/gcc/arm-altera-eabi/6.2.0/../../../../arm-altera-eabi/lib\libc.a(lib_a-sprintf.o)
                0x0203314c                _sprintf_r
                0x020331b0                sprintf
 .text          0x02033218       0x74 c:/intelfpga/18.0/embedded/host_tools/mentor/gnu/arm/baremetal/bin/../lib/gcc/arm-altera-eabi/6.2.0/../../../../arm-altera-eabi/lib\libc.a(lib_a-stpcpy.o)
                0x02033218                stpcpy
 .text          0x0203328c      0x1ac c:/intelfpga/18.0/embedded/host_tools/mentor/gnu/arm/baremetal/bin/../lib/gcc/arm-altera-eabi/6.2.0/../../../../arm-altera-eabi/lib\libc.a(lib_a-strchr.o)
                0x0203328c                strchr
 .text          0x02033438      0x224 c:/intelfpga/18.0/embedded/host_tools/mentor/gnu/arm/baremetal/bin/../lib/gcc/arm-altera-eabi/6.2.0/../../../../arm-altera-eabi/lib\libc.a(lib_a-strcmp.o)
                0x02033438                strcmp
 .text          0x0203365c       0xf0 c:/intelfpga/18.0/embedded/host_tools/mentor/gnu/arm/baremetal/bin/../lib/gcc/arm-altera-eabi/6.2.0/../../../../arm-altera-eabi/lib\libc.a(lib_a-strcpy.o)
                0x0203365c                strcpy
 .text          0x0203374c       0x64 c:/intelfpga/18.0/embedded/host_tools/mentor/gnu/arm/baremetal/bin/../lib/gcc/arm-altera-eabi/6.2.0/../../../../arm-altera-eabi/lib\libc.a(lib_a-strcspn.o)
                0x0203374c                strcspn
 .text          0x020337b0       0x60 c:/intelfpga/18.0/embedded/host_tools/mentor/gnu/arm/baremetal/bin/../lib/gcc/arm-altera-eabi/6.2.0/../../../../arm-altera-eabi/lib\libc.a(lib_a-strlen-stub.o)
                0x020337b0                strlen
 .text          0x02033810      0x110 c:/intelfpga/18.0/embedded/host_tools/mentor/gnu/arm/baremetal/bin/../lib/gcc/arm-altera-eabi/6.2.0/../../../../arm-altera-eabi/lib\libc.a(lib_a-strncmp.o)
                0x02033810                strncmp
 .text          0x02033920       0xdc c:/intelfpga/18.0/embedded/host_tools/mentor/gnu/arm/baremetal/bin/../lib/gcc/arm-altera-eabi/6.2.0/../../../../arm-altera-eabi/lib\libc.a(lib_a-strncpy.o)
                0x02033920                strncpy
 .text          0x020339fc       0x70 c:/intelfpga/18.0/embedded/host_tools/mentor/gnu/arm/baremetal/bin/../lib/gcc/arm-altera-eabi/6.2.0/../../../../arm-altera-eabi/lib\libc.a(lib_a-strspn.o)
                0x020339fc                strspn
 .text          0x02033a6c      0x834 c:/intelfpga/18.0/embedded/host_tools/mentor/gnu/arm/baremetal/bin/../lib/gcc/arm-altera-eabi/6.2.0/../../../../arm-altera-eabi/lib\libc.a(lib_a-strstr.o)
                0x02033f28                strstr
 .text          0x020342a0      0x308 c:/intelfpga/18.0/embedded/host_tools/mentor/gnu/arm/baremetal/bin/../lib/gcc/arm-altera-eabi/6.2.0/../../../../arm-altera-eabi/lib\libc.a(lib_a-strtol.o)
                0x020344c0                _strtol_r
                0x02034514                strtol_l
                0x02034550                strtol
 .text          0x020345a8      0x2d0 c:/intelfpga/18.0/embedded/host_tools/mentor/gnu/arm/baremetal/bin/../lib/gcc/arm-altera-eabi/6.2.0/../../../../arm-altera-eabi/lib\libc.a(lib_a-strtoul.o)
                0x02034790                _strtoul_r
                0x020347e4                strtoul_l
                0x02034820                strtoul
 .text          0x02034878     0x2030 c:/intelfpga/18.0/embedded/host_tools/mentor/gnu/arm/baremetal/bin/../lib/gcc/arm-altera-eabi/6.2.0/../../../../arm-altera-eabi/lib\libc.a(lib_a-svfprintf.o)
                0x02034878                _svfprintf_r
 .text          0x020368a8     0x22ec c:/intelfpga/18.0/embedded/host_tools/mentor/gnu/arm/baremetal/bin/../lib/gcc/arm-altera-eabi/6.2.0/../../../../arm-altera-eabi/lib\libc.a(lib_a-vfprintf.o)
                0x020368a8                _vfprintf_r
                0x02038a9c                vfprintf
 .text          0x02038b94      0x154 c:/intelfpga/18.0/embedded/host_tools/mentor/gnu/arm/baremetal/bin/../lib/gcc/arm-altera-eabi/6.2.0/../../../../arm-altera-eabi/lib\libc.a(lib_a-wbuf.o)
                0x02038b94                __swbuf_r
                0x02038cc8                __swbuf
 .text          0x02038ce8      0x158 c:/intelfpga/18.0/embedded/host_tools/mentor/gnu/arm/baremetal/bin/../lib/gcc/arm-altera-eabi/6.2.0/../../../../arm-altera-eabi/lib\libc.a(lib_a-wsetup.o)
                0x02038ce8                __swsetup_r
 .text          0x02038e40     0x181c c:/intelfpga/18.0/embedded/host_tools/mentor/gnu/arm/baremetal/bin/../lib/gcc/arm-altera-eabi/6.2.0/../../../../arm-altera-eabi/lib\libc.a(lib_a-dtoa.o)
                0x02039020                _dtoa_r
 .text          0x0203a65c      0x314 c:/intelfpga/18.0/embedded/host_tools/mentor/gnu/arm/baremetal/bin/../lib/gcc/arm-altera-eabi/6.2.0/../../../../arm-altera-eabi/lib\libc.a(lib_a-fflush.o)
                0x0203a65c                __sflush_r
                0x0203a898                _fflush_r
                0x0203a934                fflush
 .text          0x0203a970      0x3e4 c:/intelfpga/18.0/embedded/host_tools/mentor/gnu/arm/baremetal/bin/../lib/gcc/arm-altera-eabi/6.2.0/../../../../arm-altera-eabi/lib\libc.a(lib_a-findfp.o)
                0x0203a970                _cleanup_r
                0x0203aa7c                __sfmoreglue
                0x0203aacc                _cleanup
                0x0203aaf0                __sinit
                0x0203ab84                __sfp
                0x0203aca4                __sfp_lock_acquire
                0x0203acbc                __sfp_lock_release
                0x0203acd4                __sinit_lock_acquire
                0x0203acec                __sinit_lock_release
                0x0203ad04                __fp_lock_all
                0x0203ad2c                __fp_unlock_all
 .text.startup  0x0203ad54       0x30 c:/intelfpga/18.0/embedded/host_tools/mentor/gnu/arm/baremetal/bin/../lib/gcc/arm-altera-eabi/6.2.0/../../../../arm-altera-eabi/lib\libc.a(lib_a-findfp.o)
 .text          0x0203ad84      0x3e0 c:/intelfpga/18.0/embedded/host_tools/mentor/gnu/arm/baremetal/bin/../lib/gcc/arm-altera-eabi/6.2.0/../../../../arm-altera-eabi/lib\libc.a(lib_a-freer.o)
                0x0203ad84                _malloc_trim_r
                0x0203ae84                _free_r
 .text          0x0203b164      0x4dc c:/intelfpga/18.0/embedded/host_tools/mentor/gnu/arm/baremetal/bin/../lib/gcc/arm-altera-eabi/6.2.0/../../../../arm-altera-eabi/lib\libc.a(lib_a-fvwrite.o)
                0x0203b164                __sfvwrite_r
 .text          0x0203b640      0x110 c:/intelfpga/18.0/embedded/host_tools/mentor/gnu/arm/baremetal/bin/../lib/gcc/arm-altera-eabi/6.2.0/../../../../arm-altera-eabi/lib\libc.a(lib_a-fwalk.o)
                0x0203b640                _fwalk
                0x0203b6c4                _fwalk_reent
 .text          0x0203b750       0xf4 c:/intelfpga/18.0/embedded/host_tools/mentor/gnu/arm/baremetal/bin/../lib/gcc/arm-altera-eabi/6.2.0/../../../../arm-altera-eabi/lib\libc.a(lib_a-locale.o)
                0x0203b774                _setlocale_r
                0x0203b7dc                __locale_mb_cur_max
                0x0203b804                __locale_ctype_ptr_l
                0x0203b80c                __locale_ctype_ptr
                0x0203b824                setlocale
 .text          0x0203b844       0x58 c:/intelfpga/18.0/embedded/host_tools/mentor/gnu/arm/baremetal/bin/../lib/gcc/arm-altera-eabi/6.2.0/../../../../arm-altera-eabi/lib\libc.a(lib_a-localeconv.o)
                0x0203b844                __localeconv_l
                0x0203b84c                _localeconv_r
                0x0203b874                localeconv
 .text          0x0203b89c      0x18c c:/intelfpga/18.0/embedded/host_tools/mentor/gnu/arm/baremetal/bin/../lib/gcc/arm-altera-eabi/6.2.0/../../../../arm-altera-eabi/lib\libc.a(lib_a-makebuf.o)
                0x0203b89c                __swhatbuf_r
                0x0203b93c                __smakebuf_r
 .text          0x0203ba28       0xa0 c:/intelfpga/18.0/embedded/host_tools/mentor/gnu/arm/baremetal/bin/../lib/gcc/arm-altera-eabi/6.2.0/../../../../arm-altera-eabi/lib\libc.a(lib_a-mbtowc_r.o)
                0x0203ba28                _mbtowc_r
                0x0203ba7c                __ascii_mbtowc
 .text          0x0203bac8      0x110 c:/intelfpga/18.0/embedded/host_tools/mentor/gnu/arm/baremetal/bin/../lib/gcc/arm-altera-eabi/6.2.0/../../../../arm-altera-eabi/lib\libc.a(lib_a-memchr-stub.o)
                0x0203bac8                memchr
 .text          0x0203bbd8      0xd98 c:/intelfpga/18.0/embedded/host_tools/mentor/gnu/arm/baremetal/bin/../lib/gcc/arm-altera-eabi/6.2.0/../../../../arm-altera-eabi/lib\libc.a(lib_a-mprec.o)
                0x0203bbd8                _Balloc
                0x0203bc64                _Bfree
                0x0203bc80                __multadd
                0x0203bd5c                __s2b
                0x0203be4c                __hi0bits
                0x0203bea4                __lo0bits
                0x0203bf44                __i2b
                0x0203bf68                __multiply
                0x0203c138                __pow5mult
                0x0203c23c                __lshift
                0x0203c324                __mcmp
                0x0203c384                __mdiff
                0x0203c52c                __ulp
                0x0203c594                __b2d
                0x0203c680                __d2b
                0x0203c790                __ratio
                0x0203c820                _mprec_log10
                0x0203c880                __copybits
                0x0203c8f0                __any_on
 .text          0x0203c970      0x1bc c:/intelfpga/18.0/embedded/host_tools/mentor/gnu/arm/baremetal/bin/../lib/gcc/arm-altera-eabi/6.2.0/../../../../arm-altera-eabi/lib\libc.a(lib_a-putc.o)
                0x0203c970                _putc_r
                0x0203ca4c                putc
 .text          0x0203cb2c      0x218 c:/intelfpga/18.0/embedded/host_tools/mentor/gnu/arm/baremetal/bin/../lib/gcc/arm-altera-eabi/6.2.0/../../../../arm-altera-eabi/lib\libc.a(lib_a-refill.o)
                0x0203cb54                __srefill_r
 .text          0x0203cd44       0xd8 c:/intelfpga/18.0/embedded/host_tools/mentor/gnu/arm/baremetal/bin/../lib/gcc/arm-altera-eabi/6.2.0/../../../../arm-altera-eabi/lib\libc.a(lib_a-stdio.o)
                0x0203cd44                __sread
                0x0203cd78                __seofread
                0x0203cd80                __swrite
                0x0203cdd8                __sseek
                0x0203ce08                __sclose
 .text          0x0203ce1c     0x11e0 c:/intelfpga/18.0/embedded/host_tools/mentor/gnu/arm/baremetal/bin/../lib/gcc/arm-altera-eabi/6.2.0/../../../../arm-altera-eabi/lib\libc.a(lib_a-svfiprintf.o)
                0x0203ce1c                __ssprint_r
                0x0203cfac                _svfiprintf_r
 .text          0x0203dffc     0x14c4 c:/intelfpga/18.0/embedded/host_tools/mentor/gnu/arm/baremetal/bin/../lib/gcc/arm-altera-eabi/6.2.0/../../../../arm-altera-eabi/lib\libc.a(lib_a-vfiprintf.o)
                0x0203e0ac                __sprint_r
                0x0203e0c4                _vfiprintf_r
                0x0203f3c8                vfiprintf
 .text          0x0203f4c0       0x74 c:/intelfpga/18.0/embedded/host_tools/mentor/gnu/arm/baremetal/bin/../lib/gcc/arm-altera-eabi/6.2.0/../../../../arm-altera-eabi/lib\libc.a(lib_a-wctomb_r.o)
                0x0203f4c0                _wctomb_r
                0x0203f50c                __ascii_wctomb
 .text          0x0203f534      0x180 c:/intelfpga/18.0/embedded/host_tools/mentor/gnu/arm/baremetal/bin/../lib/gcc/arm-altera-eabi/6.2.0/../../../../arm-altera-eabi/lib\libc.a(lib_a-fclose.o)
                0x0203f534                _fclose_r
                0x0203f69c                fclose
 .text          0x0203f6b4      0x204 c:/intelfpga/18.0/embedded/host_tools/mentor/gnu/arm/baremetal/bin/../lib/gcc/arm-altera-eabi/6.2.0/../../../../arm-altera-eabi/lib\libc.a(lib_a-fputwc.o)
                0x0203f6b4                __fputwc
                0x0203f7c4                _fputwc_r
                0x0203f880                fputwc
 .text          0x0203f8b8      0x150 c:/intelfpga/18.0/embedded/host_tools/mentor/gnu/arm/baremetal/bin/../lib/gcc/arm-altera-eabi/6.2.0/../../../../arm-altera-eabi/lib\libc.a(lib_a-wcrtomb.o)
                0x0203f8b8                _wcrtomb_r
                0x0203f95c                wcrtomb
 .text          0x0203fa08      0x41c c:/intelfpga/18.0/embedded/host_tools/mentor/gnu/arm/baremetal/bin/../lib/gcc/arm-altera-eabi/6.2.0\libgcc.a(_arm_addsubdf3.o)
                0x0203fa08                __aeabi_drsub
                0x0203fa10                __aeabi_dsub
                0x0203fa10                __subdf3
                0x0203fa14                __aeabi_dadd
                0x0203fa14                __adddf3
                0x0203fd24                __floatunsidf
                0x0203fd24                __aeabi_ui2d
                0x0203fd48                __floatsidf
                0x0203fd48                __aeabi_i2d
                0x0203fd70                __aeabi_f2d
                0x0203fd70                __extendsfdf2
                0x0203fdb0                __floatundidf
                0x0203fdb0                __aeabi_ul2d
                0x0203fdc4                __floatdidf
                0x0203fdc4                __aeabi_l2d
 .text          0x0203fe24      0x49c c:/intelfpga/18.0/embedded/host_tools/mentor/gnu/arm/baremetal/bin/../lib/gcc/arm-altera-eabi/6.2.0\libgcc.a(_arm_muldivdf3.o)
                0x0203fe24                __aeabi_dmul
                0x0203fe24                __muldf3
                0x020400b4                __divdf3
                0x020400b4                __aeabi_ddiv
 .text          0x020402c0      0x144 c:/intelfpga/18.0/embedded/host_tools/mentor/gnu/arm/baremetal/bin/../lib/gcc/arm-altera-eabi/6.2.0\libgcc.a(_arm_cmpdf2.o)
                0x020402c0                __gtdf2
                0x020402c0                __gedf2
                0x020402c8                __ltdf2
                0x020402c8                __ledf2
                0x020402d0                __nedf2
                0x020402d0                __eqdf2
                0x020402d0                __cmpdf2
                0x02040358                __aeabi_cdrcmple
                0x02040374                __aeabi_cdcmpeq
                0x02040374                __aeabi_cdcmple
                0x0204038c                __aeabi_dcmpeq
                0x020403a4                __aeabi_dcmplt
                0x020403bc                __aeabi_dcmple
                0x020403d4                __aeabi_dcmpge
                0x020403ec                __aeabi_dcmpgt
 .text          0x02040404       0x38 c:/intelfpga/18.0/embedded/host_tools/mentor/gnu/arm/baremetal/bin/../lib/gcc/arm-altera-eabi/6.2.0\libgcc.a(_arm_unorddf2.o)
                0x02040404                __unorddf2
                0x02040404                __aeabi_dcmpun
 .text          0x0204043c       0x5c c:/intelfpga/18.0/embedded/host_tools/mentor/gnu/arm/baremetal/bin/../lib/gcc/arm-altera-eabi/6.2.0\libgcc.a(_arm_fixdfsi.o)
                0x0204043c                __aeabi_d2iz
                0x0204043c                __fixdfsi
 *(.plt)
 *(.gnu.warning)
 *(.glue_7t)
 .glue_7t       0x02040498        0x0 linker stubs
 *(.glue_7)
 .glue_7        0x02040498        0x0 linker stubs
 *(.vfp11_veneer)
 .vfp11_veneer  0x02040498        0x0 linker stubs
 *(.ARM.extab* .gnu.linkonce.armextab.*)
 *(.gcc_except_table)

.v4_bx          0x02040498        0x0
 .v4_bx         0x02040498        0x0 linker stubs

.iplt           0x02040498        0x0
 .iplt          0x02040498        0x0 c:/intelfpga/18.0/embedded/host_tools/mentor/gnu/arm/baremetal/bin/../lib/gcc/arm-altera-eabi/6.2.0/crtbegin.o

.eh_frame_hdr
 *(.eh_frame_hdr)
 *(.eh_frame_entry .eh_frame_entry.*)

.eh_frame       0x02040498        0x4
 *(.eh_frame)
 .eh_frame      0x02040498        0x0 c:/intelfpga/18.0/embedded/host_tools/mentor/gnu/arm/baremetal/bin/../lib/gcc/arm-altera-eabi/6.2.0/crtbegin.o
 .eh_frame      0x02040498        0x4 c:/intelfpga/18.0/embedded/host_tools/mentor/gnu/arm/baremetal/bin/../lib/gcc/arm-altera-eabi/6.2.0/crtend.o
 *(.eh_frame.*)
                [!provide]                PROVIDE (__exidx_start, .)

.ARM.exidx      0x0204049c        0x8
 *(.ARM.exidx* .gnu.linkonce.armexidx.*)
 .ARM.exidx     0x0204049c        0x8 c:/intelfpga/18.0/embedded/host_tools/mentor/gnu/arm/baremetal/bin/../lib/gcc/arm-altera-eabi/6.2.0\libgcc.a(_udivmoddi4.o)
                [!provide]                PROVIDE (__exidx_end, .)

.rel.dyn        0x020404a4        0x0
 .rel.iplt      0x020404a4        0x0 c:/intelfpga/18.0/embedded/host_tools/mentor/gnu/arm/baremetal/bin/../lib/gcc/arm-altera-eabi/6.2.0/crtbegin.o

.rodata         0x020404a8   0x16c650
 *(.rodata .rodata.* .gnu.linkonce.r.*)
 .rodata.main.str1.4
                0x020404a8       0x5f Main_mAbassi.o
 *fill*         0x02040507        0x1 
 .rodata        0x02040508        0xc MyApp_Web.o
 .rodata.DoInitLwIP.str1.4
                0x02040514       0xf7 MyApp_Web.o
 *fill*         0x0204060b        0x1 
 .rodata.Task_FPGA_Button.str1.4
                0x0204060c       0x45 MyApp_Web.o
 *fill*         0x02040651        0x3 
 .rodata.Task_HPS_Led.str1.4
                0x02040654       0x5d MyApp_Web.o
 *fill*         0x020406b1        0x3 
 .rodata.button_CallbackInterrupt.str1.4
                0x020406b4        0xc MyApp_Web.o
 .rodata.setup_hps_gpio.str1.4
                0x020406c0       0x2d MyApp_Web.o
 *fill*         0x020406ed        0x3 
 .rodata.spi_CallbackInterrupt.str1.4
                0x020406f0       0x2a MyApp_Web.o
 *fill*         0x0204071a        0x2 
 .rodata.DoInitFatFS.str1.4
                0x0204071c       0xc8 MyFatFS.o
 .rodata.DoProcessFatFS.str1.4
                0x020407e4       0x61 MyFatFS.o
 *fill*         0x02040845        0x3 
 .rodata.Fname.8694
                0x02040848        0x9 MyFatFS.o
 *fill*         0x02040851        0x3 
 .rodata.cmd_cat.str1.4
                0x02040854      0x155 MyFatFS.o
 *fill*         0x020409a9        0x3 
 .rodata.cmd_cd.str1.4
                0x020409ac       0x92 MyFatFS.o
 *fill*         0x02040a3e        0x2 
 .rodata.cmd_chmod.str1.4
                0x02040a40       0xeb MyFatFS.o
 *fill*         0x02040b2b        0x1 
 .rodata.cmd_cp.str1.4
                0x02040b2c       0xfd MyFatFS.o
 *fill*         0x02040c29        0x3 
 .rodata.cmd_du.str1.4
                0x02040c2c       0xf3 MyFatFS.o
 *fill*         0x02040d1f        0x1 
 .rodata.cmd_fmt.str1.4
                0x02040d20       0x70 MyFatFS.o
 .rodata.cmd_help.str1.4
                0x02040d90       0x93 MyFatFS.o
 *fill*         0x02040e23        0x1 
 .rodata.cmd_ls.str1.4
                0x02040e24       0x96 MyFatFS.o
 *fill*         0x02040eba        0x2 
 .rodata.cmd_mkdir.str1.4
                0x02040ebc       0x8e MyFatFS.o
 *fill*         0x02040f4a        0x2 
 .rodata.cmd_mnt.str1.4
                0x02040f4c       0xf2 MyFatFS.o
 *fill*         0x0204103e        0x2 
 .rodata.cmd_mv.str1.4
                0x02041040       0x79 MyFatFS.o
 *fill*         0x020410b9        0x3 
 .rodata.cmd_perf.str1.4
                0x020410bc      0x1de MyFatFS.o
 *fill*         0x0204129a        0x2 
 .rodata.cmd_pwd.str1.4
                0x0204129c       0xa7 MyFatFS.o
 *fill*         0x02041343        0x1 
 .rodata.cmd_rm.str1.4
                0x02041344       0xe0 MyFatFS.o
 .rodata.cmd_rmdir.str1.4
                0x02041424       0xd3 MyFatFS.o
 *fill*         0x020414f7        0x1 
 .rodata.cmd_umnt.str1.4
                0x020414f8       0x82 MyFatFS.o
 *fill*         0x0204157a        0x2 
 .rodata.str1.4
                0x0204157c       0x4e MyFatFS.o
                                 0x5a (size before relaxing)
 *fill*         0x020415ca        0x2 
 .rodata.ButtonUpdate.str1.4
                0x020415cc        0x5 CGI_SSI.o
 *fill*         0x020415d1        0x3 
 .rodata.CGIinit.str1.4
                0x020415d4        0xa CGI_SSI.o
 *fill*         0x020415de        0x2 
 .rodata.LEDS_CGI_Handler.str1.4
                0x020415e0       0x1c CGI_SSI.o
                                 0x1e (size before relaxing)
 .rodata.SSIinit.str1.4
                0x020415fc      0x22f CGI_SSI.o
                                0x233 (size before relaxing)
 *fill*         0x0204182b        0x1 
 .rodata.WebPageRTOS.str1.4
                0x0204182c       0xd7 CGI_SSI.o
 *fill*         0x02041903        0x1 
 .rodata.XL345update.str1.4
                0x02041904       0x27 CGI_SSI.o
 *fill*         0x0204192b        0x5 
 .rodata.g_SwitchState
                0x02041930        0x8 CGI_SSI.o
 .rodata.LwIP_DHCP_task.str1.4
                0x02041938       0x7c NetAddr.o
 .rodata.LwIP_Init.str1.4
                0x020419b4       0x3c NetAddr.o
 .rodata.NetAddr_Init.str1.4
                0x020419f0       0x3e NetAddr.o
                                 0x4e (size before relaxing)
 *fill*         0x02041a2e        0x2 
 .rodata.POSTprocess.str1.4
                0x02041a30       0x10 WebServer.o
 .rodata.SSIevalExpr.str1.4
                0x02041a40       0x22 WebServer.o
                                 0x2a (size before relaxing)
 *fill*         0x02041a62        0x2 
 .rodata.SSIexpand.str1.4
                0x02041a64       0xed WebServer.o
                                 0xf5 (size before relaxing)
 *fill*         0x02041b51        0x3 
 .rodata.SSIvarUpdate.str1.4
                0x02041b54       0x17 WebServer.o
 *fill*         0x02041b6b        0x1 
 .rodata.WebServerInit.str1.4
                0x02041b6c        0x9 WebServer.o
 *fill*         0x02041b75        0x3 
 .rodata.WebserverTask.str1.4
                0x02041b78      0x17b httpserver-netconn.o
                                0x183 (size before relaxing)
 *fill*         0x02041cf3        0x1 
 .rodata.g_MyVerbs
                0x02041cf4       0x48 httpserver-netconn.o
 .rodata.http_server_init.str1.4
                0x02041d3c        0xc httpserver-netconn.o
 .rodata.dma_init.str1.4
                0x02041d48        0x4 arm_pl330.o
 *fill*         0x02041d4c        0x4 
 .rodata.g_DmaNames
                0x02041d50        0x5 arm_pl330.o
 *fill*         0x02041d55        0x3 
 .rodata.g_SemNames
                0x02041d58       0x38 arm_pl330.o
 .rodata.G_EMACaddr
                0x02041d90        0x8 dw_ethernet.o
                0x02041d90                G_EMACaddr
 .rodata.G_EMACreMap
                0x02041d98        0x8 dw_ethernet.o
                0x02041d98                G_EMACreMap
 .rodata.g_Skews
                0x02041da0       0x90 dw_ethernet.o
 .rodata.g_DevReMap
                0x02041e30       0x10 dw_i2c.o
 .rodata.g_HWaddr
                0x02041e40       0x10 dw_i2c.o
 .rodata.g_MuxIO
                0x02041e50       0xc0 dw_i2c.o
 .rodata.g_Names
                0x02041f10       0x40 dw_i2c.o
 .rodata.BSecho.7397
                0x02041f50        0x2 dw_uart.o
 *fill*         0x02041f52        0x6 
 .rodata.g_DevReMap
                0x02041f58        0x8 dw_uart.o
 .rodata.g_HWaddr
                0x02041f60        0x8 dw_uart.o
 .rodata.g_Names
                0x02041f68       0x40 dw_uart.o
 .rodata.SDprepData.isra.1.constprop.6.str1.4
                0x02041fa8       0x9e dw_sdmmc.o
 *fill*         0x02042046        0x2 
 .rodata.g_FreqBase
                0x02042048       0x10 dw_sdmmc.o
 .rodata.g_Names
                0x02042058        0x8 dw_sdmmc.o
 .rodata.g_SpeedMult
                0x02042060       0x40 dw_sdmmc.o
 .rodata.mmc_init.str1.4
                0x020420a0      0x53e dw_sdmmc.o
 *fill*         0x020425de        0x2 
 .rodata.mmc_sendcmd.constprop.3.str1.4
                0x020425e0       0x8f dw_sdmmc.o
 *fill*         0x0204266f        0x1 
 .rodata.mmc_sendcmd.constprop.5.str1.4
                0x02042670      0x159 dw_sdmmc.o
 *fill*         0x020427c9        0x3 
 .rodata.mmc_sendstatus.str1.4
                0x020427cc       0x67 dw_sdmmc.o
 *fill*         0x02042833        0x1 
 .rodata.ethbroadcast
                0x02042834        0x6 etharp.o
                0x02042834                ethbroadcast
 *fill*         0x0204283a        0x2 
 .rodata.ethzero
                0x0204283c        0x6 etharp.o
                0x0204283c                ethzero
 *fill*         0x02042842        0x6 
 .rodata.g_EthName
                0x02042848       0x1e ethernetif.o
 *fill*         0x02042866        0x2 
 .rodata.g_RXsemName
                0x02042868       0x2d ethernetif.o
 *fill*         0x02042895        0x3 
 .rodata.g_TXsemName
                0x02042898       0x2d ethernetif.o
 *fill*         0x020428c5        0x3 
 .rodata.ip_addr_any
                0x020428c8        0x4 ip_addr.o
                0x020428c8                ip_addr_any
 .rodata.ip_addr_broadcast
                0x020428cc        0x4 ip_addr.o
                0x020428cc                ip_addr_broadcast
 .rodata.memp_num
                0x020428d0       0x1e memp.o
 *fill*         0x020428ee        0x2 
 .rodata.memp_sizes
                0x020428f0       0x1e memp.o
 *fill*         0x0204290e        0x2 
 .rodata.g_Names
                0x02042910       0x80 sys_arch.o
 .rodata.tcp_backoff
                0x02042990        0xd tcp.o
                0x02042990                tcp_backoff
 *fill*         0x0204299d        0x3 
 .rodata.tcp_pcb_lists
                0x020429a0       0x10 tcp.o
                0x020429a0                tcp_pcb_lists
 .rodata.tcp_persist_backoff
                0x020429b0        0x7 tcp.o
                0x020429b0                tcp_persist_backoff
 *fill*         0x020429b7        0x1 
 .rodata.tcpip_init.str1.4
                0x020429b8        0xd tcpip.o
 *fill*         0x020429c5        0x3 
 .rodata.g_Names
                0x020429c8       0x10 Abassi_FatFS.o
 .rodata.disk_status.str1.4
                0x020429d8        0x6 Media_FatFS.o
 *fill*         0x020429de        0x2 
 .rodata.MEDIAinfo.str1.4
                0x020429e0       0x14 MediaIF.o
 *fill*         0x020429f4        0x4 
 .rodata.ExCvt  0x020429f8       0x80 ff.o
 .rodata.LfnOfs
                0x02042a78        0xd ff.o
 *fill*         0x02042a85        0x3 
 .rodata.f_mkfs.str1.4
                0x02042a88       0x34 ff.o
 .rodata.follow_path.str1.4
                0x02042abc       0x13 ff.o
 *fill*         0x02042acf        0x1 
 .rodata.cvt1.7579
                0x02042ad0      0x1f2 ffunicode.o
 *fill*         0x02042cc2        0x6 
 .rodata.cvt2.7580
                0x02042cc8       0xbc ffunicode.o
 *fill*         0x02042d84        0x4 
 .rodata.uc437  0x02042d88      0x100 ffunicode.o
 .rodata.data_404_html
                0x02042e88      0x1d1 fs.o
 *fill*         0x02043059        0x7 
 .rodata.data_Buttons_shtml
                0x02043060     0x1a63 fs.o
 *fill*         0x02044ac3        0x5 
 .rodata.data_I2C_shtml
                0x02044ac8     0x1a83 fs.o
 *fill*         0x0204654b        0x5 
 .rodata.data_I2Cstatus_shtml
                0x02046550     0x2727 fs.o
 *fill*         0x02048c77        0x1 
 .rodata.data_LCD_shtml
                0x02048c78     0x160a fs.o
 *fill*         0x0204a282        0x6 
 .rodata.data_LED_shtml
                0x0204a288     0x1648 fs.o
 .rodata.data_RTC_shtml
                0x0204b8d0     0x1238 fs.o
 .rodata.data_Switches_shtml
                0x0204cb08     0x1a48 fs.o
 .rodata.data_TaskList_shtml
                0x0204e550     0x1204 fs.o
 *fill*         0x0204f754        0x4 
 .rodata.data_default_shtml
                0x0204f758     0x38d8 fs.o
 .rodata.data_favicon_ico
                0x02053030      0x4ef fs.o
 *fill*         0x0205351f        0x1 
 .rodata.data_fsdata_c
                0x02053520   0x153180 fs.o
 .rodata.data_images_SW0_png
                0x021a66a0      0x15f fs.o
 *fill*         0x021a67ff        0x1 
 .rodata.data_images_SW1_png
                0x021a6800      0x161 fs.o
 *fill*         0x021a6961        0x7 
 .rodata.data_images_logo_png
                0x021a6968     0x5c60 fs.o
 .rodata.file_404_html
                0x021ac5c8       0x14 fs.o
                0x021ac5c8                file_404_html
 .rodata.file_Buttons_shtml
                0x021ac5dc       0x14 fs.o
                0x021ac5dc                file_Buttons_shtml
 .rodata.file_I2C_shtml
                0x021ac5f0       0x14 fs.o
                0x021ac5f0                file_I2C_shtml
 .rodata.file_I2Cstatus_shtml
                0x021ac604       0x14 fs.o
                0x021ac604                file_I2Cstatus_shtml
 .rodata.file_LCD_shtml
                0x021ac618       0x14 fs.o
                0x021ac618                file_LCD_shtml
 .rodata.file_LED_shtml
                0x021ac62c       0x14 fs.o
                0x021ac62c                file_LED_shtml
 .rodata.file_RTC_shtml
                0x021ac640       0x14 fs.o
                0x021ac640                file_RTC_shtml
 .rodata.file_Switches_shtml
                0x021ac654       0x14 fs.o
                0x021ac654                file_Switches_shtml
 .rodata.file_TaskList_shtml
                0x021ac668       0x14 fs.o
                0x021ac668                file_TaskList_shtml
 .rodata.file_default_shtml
                0x021ac67c       0x14 fs.o
                0x021ac67c                file_default_shtml
 .rodata.file_favicon_ico
                0x021ac690       0x14 fs.o
                0x021ac690                file_favicon_ico
 .rodata.file_fsdata_c
                0x021ac6a4       0x14 fs.o
                0x021ac6a4                file_fsdata_c
 .rodata.file_images_SW0_png
                0x021ac6b8       0x14 fs.o
                0x021ac6b8                file_images_SW0_png
 .rodata.file_images_SW1_png
                0x021ac6cc       0x14 fs.o
                0x021ac6cc                file_images_SW1_png
 .rodata.file_images_logo_png
                0x021ac6e0       0x14 fs.o
                0x021ac6e0                file_images_logo_png
 .rodata.G_ABORTstackSize
                0x021ac6f4        0x4 mAbassiCfgA9.o
                0x021ac6f4                G_ABORTstackSize
 .rodata.G_FIQstackSize
                0x021ac6f8        0x4 mAbassiCfgA9.o
                0x021ac6f8                G_FIQstackSize
 .rodata.G_IRQstackSize
                0x021ac6fc        0x4 mAbassiCfgA9.o
                0x021ac6fc                G_IRQstackSize
 .rodata.G_MMUnonCachedTbl
                0x021ac700        0xc mAbassiCfgA9.o
                0x021ac700                G_MMUnonCachedTbl
 *fill*         0x021ac70c        0x4 
 .rodata.G_MMUnonCprivTbl
                0x021ac710       0x10 mAbassiCfgA9.o
                0x021ac710                G_MMUnonCprivTbl
 .rodata.G_MMUprivateTbl
                0x021ac720       0x10 mAbassiCfgA9.o
                0x021ac720                G_MMUprivateTbl
 .rodata.G_MMUsharedTbl
                0x021ac730        0xc mAbassiCfgA9.o
                0x021ac730                G_MMUsharedTbl
 .rodata.G_SUPERstackSize
                0x021ac73c        0x4 mAbassiCfgA9.o
                0x021ac73c                G_SUPERstackSize
 .rodata.G_UNDEFstackSize
                0x021ac740        0x4 mAbassiCfgA9.o
                0x021ac740                G_UNDEFstackSize
 *fill*         0x021ac744        0x4 
 .rodata.G_OSnoName
                0x021ac748        0x4 ../../mAbassi/Platform/lib\lib_mAbassi_EVAL_R_GCC_AR5_CY5.a(mAbassi_EVAL_A9_GCC_2.o)
                0x021ac748                G_OSnoName
 *fill*         0x021ac74c        0x4 
 .rodata.G_OSprivName
                0x021ac750        0x5 ../../mAbassi/Platform/lib\lib_mAbassi_EVAL_R_GCC_AR5_CY5.a(mAbassi_EVAL_A9_GCC_2.o)
                0x021ac750                G_OSprivName
 *fill*         0x021ac755        0x3 
 .rodata.OSstart.str1.4
                0x021ac758       0x34 ../../mAbassi/Platform/lib\lib_mAbassi_EVAL_R_GCC_AR5_CY5.a(mAbassi_EVAL_A9_GCC_2.o)
                                 0x38 (size before relaxing)
 *fill*         0x021ac78c        0x4 
 .rodata.g_OSMutexName
                0x021ac790        0x6 ../../mAbassi/Platform/lib\lib_mAbassi_EVAL_R_GCC_AR5_CY5.a(mAbassi_EVAL_A9_GCC_2.o)
                0x021ac790                g_OSMutexName
 *fill*         0x021ac796        0x2 
 .rodata        0x021ac798        0x4 c:/intelfpga/18.0/embedded/host_tools/mentor/gnu/arm/baremetal/bin/../lib/gcc/arm-altera-eabi/6.2.0/../../../../arm-altera-eabi/lib\libc.a(lib_a-impure.o)
                0x021ac798                _global_impure_ptr
 .rodata.str1.4
                0x021ac79c       0x34 c:/intelfpga/18.0/embedded/host_tools/mentor/gnu/arm/baremetal/bin/../lib/gcc/arm-altera-eabi/6.2.0/../../../../arm-altera-eabi/lib\libc.a(lib_a-puts.o)
                                  0x2 (size before relaxing)
 .rodata        0x021ac79c       0x20 c:/intelfpga/18.0/embedded/host_tools/mentor/gnu/arm/baremetal/bin/../lib/gcc/arm-altera-eabi/6.2.0/../../../../arm-altera-eabi/lib\libc.a(lib_a-svfprintf.o)
 .rodata.str1.4
                0x021ac7bc       0x3f c:/intelfpga/18.0/embedded/host_tools/mentor/gnu/arm/baremetal/bin/../lib/gcc/arm-altera-eabi/6.2.0/../../../../arm-altera-eabi/lib\libc.a(lib_a-svfprintf.o)
                                 0x42 (size before relaxing)
 *fill*         0x021ac7fb        0x1 
 .rodata        0x021ac7fc       0x20 c:/intelfpga/18.0/embedded/host_tools/mentor/gnu/arm/baremetal/bin/../lib/gcc/arm-altera-eabi/6.2.0/../../../../arm-altera-eabi/lib\libc.a(lib_a-vfprintf.o)
 .rodata.str1.4
                0x021ac81c       0x42 c:/intelfpga/18.0/embedded/host_tools/mentor/gnu/arm/baremetal/bin/../lib/gcc/arm-altera-eabi/6.2.0/../../../../arm-altera-eabi/lib\libc.a(lib_a-vfprintf.o)
 .rodata.str1.4
                0x021ac81c       0x10 c:/intelfpga/18.0/embedded/host_tools/mentor/gnu/arm/baremetal/bin/../lib/gcc/arm-altera-eabi/6.2.0/../../../../arm-altera-eabi/lib\libc.a(lib_a-dtoa.o)
                                 0x12 (size before relaxing)
 .rodata.str1.4
                0x021ac82c        0xc c:/intelfpga/18.0/embedded/host_tools/mentor/gnu/arm/baremetal/bin/../lib/gcc/arm-altera-eabi/6.2.0/../../../../arm-altera-eabi/lib\libc.a(lib_a-locale.o)
                                 0x12 (size before relaxing)
 .rodata        0x021ac838      0x128 c:/intelfpga/18.0/embedded/host_tools/mentor/gnu/arm/baremetal/bin/../lib/gcc/arm-altera-eabi/6.2.0/../../../../arm-altera-eabi/lib\libc.a(lib_a-mprec.o)
                0x021ac848                __mprec_tens
                0x021ac910                __mprec_tinytens
                0x021ac938                __mprec_bigtens
 .rodata        0x021ac960       0x20 c:/intelfpga/18.0/embedded/host_tools/mentor/gnu/arm/baremetal/bin/../lib/gcc/arm-altera-eabi/6.2.0/../../../../arm-altera-eabi/lib\libc.a(lib_a-svfiprintf.o)
 .rodata.str1.4
                0x021ac980       0x2f c:/intelfpga/18.0/embedded/host_tools/mentor/gnu/arm/baremetal/bin/../lib/gcc/arm-altera-eabi/6.2.0/../../../../arm-altera-eabi/lib\libc.a(lib_a-svfiprintf.o)
 .rodata        0x021ac980       0x20 c:/intelfpga/18.0/embedded/host_tools/mentor/gnu/arm/baremetal/bin/../lib/gcc/arm-altera-eabi/6.2.0/../../../../arm-altera-eabi/lib\libc.a(lib_a-vfiprintf.o)
 .rodata.str1.4
                0x021ac9a0       0x2f c:/intelfpga/18.0/embedded/host_tools/mentor/gnu/arm/baremetal/bin/../lib/gcc/arm-altera-eabi/6.2.0/../../../../arm-altera-eabi/lib\libc.a(lib_a-vfiprintf.o)
 .rodata        0x021ac9a0      0x101 c:/intelfpga/18.0/embedded/host_tools/mentor/gnu/arm/baremetal/bin/../lib/gcc/arm-altera-eabi/6.2.0/../../../../arm-altera-eabi/lib\libc.a(lib_a-ctype_.o)
                0x021ac9a0                _ctype_
                0x021acaa4                . = ALIGN (0x4)
 *fill*         0x021acaa1        0x3 
 *(.init)
 .init          0x021acaa4        0xc c:/intelfpga/18.0/embedded/host_tools/mentor/gnu/arm/baremetal/bin/../lib/gcc/arm-altera-eabi/6.2.0/crti.o
                0x021acaa4                _init
 .init          0x021acab0        0xc c:/intelfpga/18.0/embedded/host_tools/mentor/gnu/arm/baremetal/bin/../lib/gcc/arm-altera-eabi/6.2.0/crtn.o
                0x021acabc                . = ALIGN (0x4)
                0x021acabc                __preinit_array_start = .
 *(.preinit_array)
                0x021acabc                __preinit_array_end = .
                0x021acabc                . = ALIGN (0x4)
                0x021acabc                __init_array_start = .
 *(SORT(.init_array.*))
 .init_array.00000
                0x021acabc        0x8 c:/intelfpga/18.0/embedded/host_tools/mentor/gnu/arm/baremetal/bin/../lib/gcc/arm-altera-eabi/6.2.0/../../../../arm-altera-eabi/lib\libc.a(lib_a-findfp.o)
 *(.init_array)
 .init_array    0x021acac4        0x4 c:/intelfpga/18.0/embedded/host_tools/mentor/gnu/arm/baremetal/bin/../lib/gcc/arm-altera-eabi/6.2.0/crtbegin.o
                0x021acac8                __init_array_end = .
                0x021acac8                . = ALIGN (0x4)
 *(.fini)
 .fini          0x021acac8        0xc c:/intelfpga/18.0/embedded/host_tools/mentor/gnu/arm/baremetal/bin/../lib/gcc/arm-altera-eabi/6.2.0/crti.o
                0x021acac8                _fini
 .fini          0x021acad4        0xc c:/intelfpga/18.0/embedded/host_tools/mentor/gnu/arm/baremetal/bin/../lib/gcc/arm-altera-eabi/6.2.0/crtn.o
                0x021acae0                . = ALIGN (0x4)
                0x021acae0                __fini_array_start = .
 *(.fini_array)
 .fini_array    0x021acae0        0x4 c:/intelfpga/18.0/embedded/host_tools/mentor/gnu/arm/baremetal/bin/../lib/gcc/arm-altera-eabi/6.2.0/crtbegin.o
 *(SORT(.fini_array.*))
                0x021acae4                __fini_array_end = .
                0x021acae4                . = ALIGN (0x4)
 *crtbegin.o(.ctors)
 *crtbegin?.o(.ctors)
 *(EXCLUDE_FILE(*crtend.o) .ctors)
 *(SORT(.ctors.*))
 *crtend.o(.ctors)
 *(.ctors)
                0x021acae4                . = ALIGN (0x4)
 *crtbegin.o(.dtors)
 *crtbegin?.o(.dtors)
 *(EXCLUDE_FILE(*crtend.o) .dtors)
 *(SORT(.dtors.*))
 *crtend.o(.dtors)
 *(.dtors)
                0x021acae4                . = ALIGN (0x4)
                0x021acae4                __cs3_regions = .
                0x021acae4        0x4 LONG 0x0
                0x021acae8        0x4 LONG 0x2000000 __cs3_region_init_ram
                0x021acaec        0x4 LONG 0x2000000 __cs3_region_start_ram
                0x021acaf0        0x4 LONG 0x1ad5e0 __cs3_region_init_size_ram
                0x021acaf4        0x4 LONG 0x108d3d60 __cs3_region_zero_size_ram
                0x021acaf8                __cs3_regions_end = .
                0x021acaf8                . = ALIGN (0x8)
                0x021acaf8                _etext = .
                0x00000001                ASSERT (! ((__cs3_region_init_ram & 0x7)), __cs3_region_init_ram not aligned)
                0x00000001                ASSERT (! ((__cs3_region_start_ram & 0x7)), __cs3_region_start_ram not aligned)
                0x00000001                ASSERT (! ((__cs3_region_init_size_ram & 0x7)), __cs3_region_init_size_ram not aligned)
                0x00000001                ASSERT (! ((__cs3_region_zero_size_ram & 0x7)), __cs3_region_zero_size_ram not aligned)
                0x021acaf8                __etext = .

.data           0x021acaf8      0xae8
                0x021acaf8                _fdata = .
                0x021acaf8                __data_start__ = .
 *(vtable)
 *(.data*)
 .data.fpga_buttons
                0x021acaf8        0x4 MyApp_Web.o
                0x021acaf8                fpga_buttons
 .data.fpga_leds
                0x021acafc        0x4 MyApp_Web.o
                0x021acafc                fpga_leds
 .data.fpga_spi
                0x021acb00        0x4 MyApp_Web.o
                0x021acb00                fpga_spi
 .data.CommandLst
                0x021acb04       0x88 MyFatFS.o
                0x021acb04                CommandLst
 *fill*         0x021acb8c        0x4 
 .data.State.9421
                0x021acb90       0x20 CGI_SSI.o
 .data.g_PhyMtxName
                0x021acbb0        0xc dw_ethernet.o
 .data.xid.8320
                0x021acbbc        0x4 dhcp.o
 .data.ethernet_init
                0x021acbc0       0x14 ethernetif.o
                0x021acbc0                ethernet_init
 .data.iss.8391
                0x021acbd4        0x4 tcp.o
 .data.tcp_port
                0x021acbd8        0x2 tcp.o
 .data.udp_port
                0x021acbda        0x2 udp.o
 *fill*         0x021acbdc        0x4 
 .data.ExpiryCnt.7863
                0x021acbe0        0x8 ../../mAbassi/Platform/lib\lib_mAbassi_EVAL_R_GCC_AR5_CY5.a(mAbassi_EVAL_A9_GCC_2.o)
 .data.ExpiryPrv.7864
                0x021acbe8        0x8 ../../mAbassi/Platform/lib\lib_mAbassi_EVAL_R_GCC_AR5_CY5.a(mAbassi_EVAL_A9_GCC_2.o)
 .data          0x021acbf0       0x3c ../../mAbassi/Platform/lib\lib_mAbassi_EVAL_R_GCC_AR5_CY5.a(mAbassi_EVAL_GCC_AR5_CY5.o)
                0x021acbf4                DATAabort_Handler
                0x021acbf4                __cs3_isr_dabort
                0x021acc08                FIQ_Handler
                0x021acc08                __cs3_isr_fiq
                0x021acc0c                __cs3_isr_pabort
                0x021acc0c                PFabort_Handler
                0x021acc1c                __cs3_isr_undef
                0x021acc1c                Undef_Handler
 *fill*         0x021acc2c        0x4 
 .data          0x021acc30      0x430 c:/intelfpga/18.0/embedded/host_tools/mentor/gnu/arm/baremetal/bin/../lib/gcc/arm-altera-eabi/6.2.0/../../../../arm-altera-eabi/lib\libc.a(lib_a-impure.o)
                0x021acc30                _impure_ptr
 .data          0x021ad060      0x410 c:/intelfpga/18.0/embedded/host_tools/mentor/gnu/arm/baremetal/bin/../lib/gcc/arm-altera-eabi/6.2.0/../../../../arm-altera-eabi/lib\libc.a(lib_a-mallocr.o)
                0x021ad060                __malloc_av_
                0x021ad468                __malloc_sbrk_base
                0x021ad46c                __malloc_trim_threshold
 .data          0x021ad470      0x16c c:/intelfpga/18.0/embedded/host_tools/mentor/gnu/arm/baremetal/bin/../lib/gcc/arm-altera-eabi/6.2.0/../../../../arm-altera-eabi/lib\libc.a(lib_a-locale.o)
                0x021ad470                __global_locale
 *(.jcr*)
 .jcr           0x021ad5dc        0x0 c:/intelfpga/18.0/embedded/host_tools/mentor/gnu/arm/baremetal/bin/../lib/gcc/arm-altera-eabi/6.2.0/crtbegin.o
 .jcr           0x021ad5dc        0x4 c:/intelfpga/18.0/embedded/host_tools/mentor/gnu/arm/baremetal/bin/../lib/gcc/arm-altera-eabi/6.2.0/crtend.o
                0x021ad5e0                . = ALIGN (0x8)
                0x021ad5e0                __data_end__ = .
                0x021ad5e0                _edata = .

.tm_clone_table
                0x021ad5e0        0x0
 .tm_clone_table
                0x021ad5e0        0x0 c:/intelfpga/18.0/embedded/host_tools/mentor/gnu/arm/baremetal/bin/../lib/gcc/arm-altera-eabi/6.2.0/crtbegin.o
 .tm_clone_table
                0x021ad5e0        0x0 c:/intelfpga/18.0/embedded/host_tools/mentor/gnu/arm/baremetal/bin/../lib/gcc/arm-altera-eabi/6.2.0/crtend.o

.igot.plt       0x021ad5e0        0x0
 .igot.plt      0x021ad5e0        0x0 c:/intelfpga/18.0/embedded/host_tools/mentor/gnu/arm/baremetal/bin/../lib/gcc/arm-altera-eabi/6.2.0/crtbegin.o

.bss            0x021ad600   0x8d3d40
                0x021ad600                _fbss = .
                0x021ad600                __bss_start__ = .
 *(.shbss)
 *(.bss .bss.* .gnu.linkonce.b.*)
 .bss           0x021ad600       0x1c c:/intelfpga/18.0/embedded/host_tools/mentor/gnu/arm/baremetal/bin/../lib/gcc/arm-altera-eabi/6.2.0/crtbegin.o
 .bss.G_UartDevErr
                0x021ad61c        0x4 Main_mAbassi.o
                0x021ad61c                G_UartDevErr
 .bss.G_UartDevIn
                0x021ad620        0x4 Main_mAbassi.o
                0x021ad620                G_UartDevIn
 .bss.G_UartDevOut
                0x021ad624        0x4 Main_mAbassi.o
                0x021ad624                G_UartDevOut
 .bss.Arg_V     0x021ad628       0x28 MyFatFS.o
 .bss.Buf.8634  0x021ad650     0x1000 MyFatFS.o
 .bss.CmdLine   0x021ae650      0x100 MyFatFS.o
 *fill*         0x021ae750       0x10 
 .bss.g_Buffer  0x021ae760     0x4000 MyFatFS.o
 .bss.g_Dir     0x021b2760       0x58 MyFatFS.o
 *fill*         0x021b27b8        0x8 
 .bss.g_DirNowPath
                0x021b27c0      0x200 MyFatFS.o
 .bss.g_Drive   0x021b29c0        0x3 MyFatFS.o
 *fill*         0x021b29c3       0x1d 
 .bss.gg_FileSys
                0x021b29e0     0x1070 MyFatFS.o
 .bss.g_Dummy   0x021b3a50        0x4 CGI_SSI.o
 .bss.G_IPnetDefGW
                0x021b3a54        0x4 NetAddr.o
                0x021b3a54                G_IPnetDefGW
 .bss.G_IPnetDefIP
                0x021b3a58        0x4 NetAddr.o
                0x021b3a58                G_IPnetDefIP
 .bss.G_IPnetDefNM
                0x021b3a5c        0x4 NetAddr.o
                0x021b3a5c                G_IPnetDefNM
 .bss.G_IPnetStatic
                0x021b3a60        0x4 NetAddr.o
                0x021b3a60                G_IPnetStatic
 .bss.g_NetIF   0x021b3a64       0x34 NetAddr.o
 .bss.g_CGIparam
                0x021b3a98        0x4 WebServer.o
                0x021b3a98                g_CGIparam
 .bss.g_CGIspec
                0x021b3a9c        0x4 WebServer.o
                0x021b3a9c                g_CGIspec
 .bss.g_CGIvalue
                0x021b3aa0        0x4 WebServer.o
                0x021b3aa0                g_CGIvalue
 .bss.g_MyVars  0x021b3aa4        0x4 WebServer.o
                0x021b3aa4                g_MyVars
 .bss.g_POSTspec
                0x021b3aa8        0x4 WebServer.o
                0x021b3aa8                g_POSTspec
 .bss.g_SSIupdateFct
                0x021b3aac        0x4 WebServer.o
                0x021b3aac                g_SSIupdateFct
 .bss.g_nCGIValPar
                0x021b3ab0        0x4 WebServer.o
                0x021b3ab0                g_nCGIValPar
 .bss.g_nCGIspec
                0x021b3ab4        0x4 WebServer.o
                0x021b3ab4                g_nCGIspec
 .bss.g_nMyVars
                0x021b3ab8        0x4 WebServer.o
                0x021b3ab8                g_nMyVars
 .bss.g_nPOSTspec
                0x021b3abc        0x4 WebServer.o
                0x021b3abc                g_nPOSTspec
 .bss.g_nSSIupd
                0x021b3ac0        0x4 WebServer.o
                0x021b3ac0                g_nSSIupd
 *fill*         0x021b3ac4        0x4 
 .bss.g_PageInBuf
                0x021b3ac8     0x7800 httpserver-netconn.o
 .bss.g_PageOutBuf
                0x021bb2c8     0x8000 httpserver-netconn.o
 .bss.g_RqstBuf
                0x021c32c8     0x2000 httpserver-netconn.o
 .bss.g_CfgIsInit
                0x021c52c8        0x4 arm_pl330.o
 .bss.g_DMAcfg  0x021c52cc     0x46a0 arm_pl330.o
                0x021c52cc                g_DMAcfg
 .bss.g_MyMutex
                0x021c996c        0x4 arm_pl330.o
                0x021c996c                g_MyMutex
 .bss.g_GPIOinit
                0x021c9970        0x4 alt_gpio.o
 *fill*         0x021c9974        0xc 
 .bss.G_DMArxDescTbl
                0x021c9980     0x1000 dw_ethernet.o
                0x021c9980                G_DMArxDescTbl
 .bss.G_DMAtxDescTbl
                0x021ca980     0x1000 dw_ethernet.o
                0x021ca980                G_DMAtxDescTbl
 .bss.G_EthRXbuf
                0x021cb980    0x30000 dw_ethernet.o
                0x021cb980                G_EthRXbuf
 .bss.G_EthTXbuf
                0x021fb980    0x30000 dw_ethernet.o
                0x021fb980                G_EthTXbuf
 .bss.g_CfgIsInit
                0x0222b980        0x4 dw_ethernet.o
 .bss.g_Dummy   0x0222b984        0x4 dw_ethernet.o
 .bss.g_EMACcfg
                0x0222b988      0x278 dw_ethernet.o
 .bss.g_CfgIsInit
                0x0222bc00        0x4 dw_i2c.o
 .bss.g_Dummy   0x0222bc04        0x4 dw_i2c.o
 .bss.g_I2Ccfg  0x0222bc08      0x100 dw_i2c.o
 .bss.g_CfgIsInit
                0x0222bd08        0x4 dw_uart.o
 .bss.g_UARTcfg
                0x0222bd0c     0x2088 dw_uart.o
 .bss.g_CfgIsInit
                0x0222dd94        0x4 dw_sdmmc.o
 *fill*         0x0222dd98        0x8 
 .bss.g_DMAdesc
                0x0222dda0      0x400 dw_sdmmc.o
 .bss.g_DMAscratch
                0x0222e1a0       0x40 dw_sdmmc.o
 .bss.g_MMCcfg  0x0222e1e0       0x78 dw_sdmmc.o
 .bss.dhcp_rx_options_given
                0x0222e258        0xa dhcp.o
                0x0222e258                dhcp_rx_options_given
 *fill*         0x0222e262        0x6 
 .bss.dhcp_rx_options_val
                0x0222e268       0x28 dhcp.o
                0x0222e268                dhcp_rx_options_val
 .bss.arp_table
                0x0222e290       0xc8 etharp.o
 .bss.etharp_cached_entry
                0x0222e358        0x1 etharp.o
 *fill*         0x0222e359        0x3 
 .bss.g_DummyRead
                0x0222e35c        0x4 ethernetif.o
 .bss.g_EthRXsem
                0x0222e360       0x14 ethernetif.o
 *fill*         0x0222e374        0x4 
 .bss.g_EthTXsem
                0x0222e378       0x14 ethernetif.o
 *fill*         0x0222e38c        0x4 
 .bss.g_MyMutex
                0x0222e390       0x14 ethernetif.o
 .bss.current_header
                0x0222e3a4        0x4 ip.o
                0x0222e3a4                current_header
 .bss.current_iphdr_dest
                0x0222e3a8        0x4 ip.o
                0x0222e3a8                current_iphdr_dest
 .bss.current_iphdr_src
                0x0222e3ac        0x4 ip.o
                0x0222e3ac                current_iphdr_src
 .bss.current_netif
                0x0222e3b0        0x4 ip.o
                0x0222e3b0                current_netif
 .bss.ip_id     0x0222e3b4        0x2 ip.o
 .bss.ip_reass_pbufcount
                0x0222e3b6        0x2 ip_frag.o
 .bss.reassdatagrams
                0x0222e3b8        0x4 ip_frag.o
 .bss.lfree     0x0222e3bc        0x4 mem.o
 .bss.mem_mutex
                0x0222e3c0        0x4 mem.o
 .bss.ram       0x0222e3c4        0x4 mem.o
 .bss.ram_end   0x0222e3c8        0x4 mem.o
 *fill*         0x0222e3cc        0x4 
 .bss.ram_heap  0x0222e3d0   0x200060 mem.o
                0x0222e3d0                ram_heap
 .bss.memp_memory
                0x0242e430   0x627e5f memp.o
 *fill*         0x02a5628f        0x1 
 .bss.memp_tab  0x02a56290       0x3c memp.o
 .bss.netif_default
                0x02a562cc        0x4 netif.o
                0x02a562cc                netif_default
 .bss.netif_list
                0x02a562d0        0x4 netif.o
                0x02a562d0                netif_list
 .bss.netif_num
                0x02a562d4        0x1 netif.o
 .bss.pbuf_free_ooseq_pending
                0x02a562d5        0x1 pbuf.o
                0x02a562d5                pbuf_free_ooseq_pending
 *fill*         0x02a562d6        0x2 
 .bss.raw_pcbs  0x02a562d8        0x4 raw.o
 .bss.g_IdxMbxNames
                0x02a562dc        0x4 sys_arch.o
 .bss.g_IdxMtxNames
                0x02a562e0        0x4 sys_arch.o
 .bss.g_IdxSemNames
                0x02a562e4        0x4 sys_arch.o
 .bss.g_MbxParking
                0x02a562e8       0x80 sys_arch.o
 .bss.g_MtxParking
                0x02a56368       0x40 sys_arch.o
 .bss.g_MySpinGot
                0x02a563a8        0x4 sys_arch.o
 *fill*         0x02a563ac        0x4 
 .bss.g_MySpinIsr
                0x02a563b0        0x8 sys_arch.o
 .bss.g_MySpinLock
                0x02a563b8        0x4 sys_arch.o
 .bss.g_ParkSpin
                0x02a563bc        0x4 sys_arch.o
 .bss.g_SemParking
                0x02a563c0       0x40 sys_arch.o
 .bss.g_TaskFctArg
                0x02a56400       0x80 sys_arch.o
 .bss.tcp_active_pcbs
                0x02a56480        0x4 tcp.o
                0x02a56480                tcp_active_pcbs
 .bss.tcp_active_pcbs_changed
                0x02a56484        0x1 tcp.o
                0x02a56484                tcp_active_pcbs_changed
 *fill*         0x02a56485        0x3 
 .bss.tcp_bound_pcbs
                0x02a56488        0x4 tcp.o
                0x02a56488                tcp_bound_pcbs
 .bss.tcp_listen_pcbs
                0x02a5648c        0x4 tcp.o
                0x02a5648c                tcp_listen_pcbs
 .bss.tcp_ticks
                0x02a56490        0x4 tcp.o
                0x02a56490                tcp_ticks
 .bss.tcp_timer
                0x02a56494        0x1 tcp.o
 .bss.tcp_timer_ctr
                0x02a56495        0x1 tcp.o
 *fill*         0x02a56496        0x2 
 .bss.tcp_tmp_pcb
                0x02a56498        0x4 tcp.o
                0x02a56498                tcp_tmp_pcb
 .bss.tcp_tw_pcbs
                0x02a5649c        0x4 tcp.o
                0x02a5649c                tcp_tw_pcbs
 .bss.ackno     0x02a564a0        0x4 tcp_in.o
 .bss.flags     0x02a564a4        0x1 tcp_in.o
 *fill*         0x02a564a5        0x3 
 .bss.inseg     0x02a564a8       0x14 tcp_in.o
 .bss.recv_data
                0x02a564bc        0x4 tcp_in.o
 .bss.recv_flags
                0x02a564c0        0x1 tcp_in.o
 *fill*         0x02a564c1        0x3 
 .bss.seqno     0x02a564c4        0x4 tcp_in.o
 .bss.tcp_input_pcb
                0x02a564c8        0x4 tcp_in.o
                0x02a564c8                tcp_input_pcb
 .bss.tcphdr    0x02a564cc        0x4 tcp_in.o
 .bss.tcplen    0x02a564d0        0x2 tcp_in.o
 *fill*         0x02a564d2        0x2 
 .bss.mbox      0x02a564d4        0x4 tcpip.o
 .bss.tcpip_init_done
                0x02a564d8        0x4 tcpip.o
 .bss.tcpip_init_done_arg
                0x02a564dc        0x4 tcpip.o
 .bss.next_timeout
                0x02a564e0        0x4 timers.o
 .bss.tcpip_tcp_timer_active
                0x02a564e4        0x4 timers.o
 .bss.udp_pcbs  0x02a564e8        0x4 udp.o
                0x02a564e8                udp_pcbs
 .bss.g_IsInitPark
                0x02a564ec        0x4 Abassi_FatFS.o
 .bss.g_Parking
                0x02a564f0        0x8 Abassi_FatFS.o
 .bss.g_MediaIsOK
                0x02a564f8       0x10 MediaIF.o
 .bss.g_MemDrvSize
                0x02a56508        0x4 MediaIF.o
 .bss.CurrVol   0x02a5650c        0x1 ff.o
 *fill*         0x02a5650d        0x3 
 .bss.FatFs     0x02a56510        0x8 ff.o
 .bss.Files     0x02a56518       0x80 ff.o
 .bss.Fsid      0x02a56598        0x2 ff.o
 *fill*         0x02a5659a        0x2 
 .bss.fs_memory
                0x02a5659c       0xf0 fs.o
                0x02a5659c                fs_memory
 *fill*         0x02a5668c        0x4 
 .bss.G_ABORTstack
                0x02a56690      0x800 mAbassiCfgA9.o
                0x02a56690                G_ABORTstack
 .bss.G_FIQstack
                0x02a56e90      0x800 mAbassiCfgA9.o
                0x02a56e90                G_FIQstack
 .bss.G_IRQstack
                0x02a57690     0x8000 mAbassiCfgA9.o
                0x02a57690                G_IRQstack
 .bss.G_SUPERstack
                0x02a5f690     0x8000 mAbassiCfgA9.o
                0x02a5f690                G_SUPERstack
 .bss.G_UNDEFstack
                0x02a67690      0x800 mAbassiCfgA9.o
                0x02a67690                G_UNDEFstack
 .bss.ExpiryZap.7865
                0x02a67e90        0x4 ../../mAbassi/Platform/lib\lib_mAbassi_EVAL_R_GCC_AR5_CY5.a(mAbassi_EVAL_A9_GCC_2.o)
 *fill*         0x02a67e94        0x4 
 .bss.G_CoreIdleDone
                0x02a67e98        0x8 ../../mAbassi/Platform/lib\lib_mAbassi_EVAL_R_GCC_AR5_CY5.a(mAbassi_EVAL_A9_GCC_2.o)
                0x02a67e98                G_CoreIdleDone
 .bss.G_OSisrQrd
                0x02a67ea0        0x8 ../../mAbassi/Platform/lib\lib_mAbassi_EVAL_R_GCC_AR5_CY5.a(mAbassi_EVAL_A9_GCC_2.o)
                0x02a67ea0                G_OSisrQrd
 .bss.G_OSisrQwrt
                0x02a67ea8        0x8 ../../mAbassi/Platform/lib\lib_mAbassi_EVAL_R_GCC_AR5_CY5.a(mAbassi_EVAL_A9_GCC_2.o)
                0x02a67ea8                G_OSisrQwrt
 .bss.G_OSisrState
                0x02a67eb0       0x38 ../../mAbassi/Platform/lib\lib_mAbassi_EVAL_R_GCC_AR5_CY5.a(mAbassi_EVAL_A9_GCC_2.o)
                0x02a67eb0                G_OSisrState
 .bss.G_OSisrTbl
                0x02a67ee8     0x1000 ../../mAbassi/Platform/lib\lib_mAbassi_EVAL_R_GCC_AR5_CY5.a(mAbassi_EVAL_A9_GCC_2.o)
                0x02a67ee8                G_OSisrTbl
 .bss.G_OSmtxGCC
                0x02a68ee8        0x4 ../../mAbassi/Platform/lib\lib_mAbassi_EVAL_R_GCC_AR5_CY5.a(mAbassi_EVAL_A9_GCC_2.o)
                0x02a68ee8                G_OSmtxGCC
 .bss.G_OSmtxGCCalloc
                0x02a68eec        0x4 ../../mAbassi/Platform/lib\lib_mAbassi_EVAL_R_GCC_AR5_CY5.a(mAbassi_EVAL_A9_GCC_2.o)
                0x02a68eec                G_OSmtxGCCalloc
 .bss.G_OSmtxGCCenv
                0x02a68ef0        0x4 ../../mAbassi/Platform/lib\lib_mAbassi_EVAL_R_GCC_AR5_CY5.a(mAbassi_EVAL_A9_GCC_2.o)
                0x02a68ef0                G_OSmtxGCCenv
 .bss.G_OSmtxGCCtz
                0x02a68ef4        0x4 ../../mAbassi/Platform/lib\lib_mAbassi_EVAL_R_GCC_AR5_CY5.a(mAbassi_EVAL_A9_GCC_2.o)
                0x02a68ef4                G_OSmtxGCCtz
 .bss.G_OSmtxOK
                0x02a68ef8        0x4 ../../mAbassi/Platform/lib\lib_mAbassi_EVAL_R_GCC_AR5_CY5.a(mAbassi_EVAL_A9_GCC_2.o)
                0x02a68ef8                G_OSmtxOK
 .bss.G_OSmtxPark
                0x02a68efc        0x4 ../../mAbassi/Platform/lib\lib_mAbassi_EVAL_R_GCC_AR5_CY5.a(mAbassi_EVAL_A9_GCC_2.o)
                0x02a68efc                G_OSmtxPark
 .bss.G_OSmutex
                0x02a68f00        0x4 ../../mAbassi/Platform/lib\lib_mAbassi_EVAL_R_GCC_AR5_CY5.a(mAbassi_EVAL_A9_GCC_2.o)
                0x02a68f00                G_OSmutex
 .bss.G_OSstate
                0x02a68f04        0x4 ../../mAbassi/Platform/lib\lib_mAbassi_EVAL_R_GCC_AR5_CY5.a(mAbassi_EVAL_A9_GCC_2.o)
                0x02a68f04                G_OSstate
 .bss.G_OStaskNow
                0x02a68f08        0x8 ../../mAbassi/Platform/lib\lib_mAbassi_EVAL_R_GCC_AR5_CY5.a(mAbassi_EVAL_A9_GCC_2.o)
                0x02a68f08                G_OStaskNow
 .bss.G_OStimCnt
                0x02a68f10        0x4 ../../mAbassi/Platform/lib\lib_mAbassi_EVAL_R_GCC_AR5_CY5.a(mAbassi_EVAL_A9_GCC_2.o)
                0x02a68f10                G_OStimCnt
 *fill*         0x02a68f14        0x4 
 .bss.LoadBal.7850
                0x02a68f18        0x8 ../../mAbassi/Platform/lib\lib_mAbassi_EVAL_R_GCC_AR5_CY5.a(mAbassi_EVAL_A9_GCC_2.o)
 .bss.g_CoreInInit
                0x02a68f20        0x4 ../../mAbassi/Platform/lib\lib_mAbassi_EVAL_R_GCC_AR5_CY5.a(mAbassi_EVAL_A9_GCC_2.o)
 .bss.g_GrpList
                0x02a68f24        0x4 ../../mAbassi/Platform/lib\lib_mAbassi_EVAL_R_GCC_AR5_CY5.a(mAbassi_EVAL_A9_GCC_2.o)
                0x02a68f24                g_GrpList
 .bss.g_KrnlReent
                0x02a68f28        0x8 ../../mAbassi/Platform/lib\lib_mAbassi_EVAL_R_GCC_AR5_CY5.a(mAbassi_EVAL_A9_GCC_2.o)
                0x02a68f28                g_KrnlReent
 .bss.g_MboxList
                0x02a68f30        0x4 ../../mAbassi/Platform/lib\lib_mAbassi_EVAL_R_GCC_AR5_CY5.a(mAbassi_EVAL_A9_GCC_2.o)
                0x02a68f30                g_MboxList
 .bss.g_MutexList
                0x02a68f34        0x4 ../../mAbassi/Platform/lib\lib_mAbassi_EVAL_R_GCC_AR5_CY5.a(mAbassi_EVAL_A9_GCC_2.o)
                0x02a68f34                g_MutexList
 .bss.g_OStimCore
                0x02a68f38        0x8 ../../mAbassi/Platform/lib\lib_mAbassi_EVAL_R_GCC_AR5_CY5.a(mAbassi_EVAL_A9_GCC_2.o)
 .bss.g_OStimSpin
                0x02a68f40        0x4 ../../mAbassi/Platform/lib\lib_mAbassi_EVAL_R_GCC_AR5_CY5.a(mAbassi_EVAL_A9_GCC_2.o)
 .bss.g_PostQueue
                0x02a68f44    0x18000 ../../mAbassi/Platform/lib\lib_mAbassi_EVAL_R_GCC_AR5_CY5.a(mAbassi_EVAL_A9_GCC_2.o)
 .bss.g_SemaList
                0x02a80f44        0x4 ../../mAbassi/Platform/lib\lib_mAbassi_EVAL_R_GCC_AR5_CY5.a(mAbassi_EVAL_A9_GCC_2.o)
                0x02a80f44                g_SemaList
 .bss.g_StrvHoldCnt
                0x02a80f48        0x4 ../../mAbassi/Platform/lib\lib_mAbassi_EVAL_R_GCC_AR5_CY5.a(mAbassi_EVAL_A9_GCC_2.o)
                0x02a80f48                g_StrvHoldCnt
 .bss.g_StrvList
                0x02a80f4c        0x4 ../../mAbassi/Platform/lib\lib_mAbassi_EVAL_R_GCC_AR5_CY5.a(mAbassi_EVAL_A9_GCC_2.o)
                0x02a80f4c                g_StrvList
 .bss.g_StrvPreEmptCnt
                0x02a80f50        0x4 ../../mAbassi/Platform/lib\lib_mAbassi_EVAL_R_GCC_AR5_CY5.a(mAbassi_EVAL_A9_GCC_2.o)
                0x02a80f50                g_StrvPreEmptCnt
 .bss.g_StrvRunCnt
                0x02a80f54        0x4 ../../mAbassi/Platform/lib\lib_mAbassi_EVAL_R_GCC_AR5_CY5.a(mAbassi_EVAL_A9_GCC_2.o)
                0x02a80f54                g_StrvRunCnt
 .bss.g_StrvTick
                0x02a80f58        0x4 ../../mAbassi/Platform/lib\lib_mAbassi_EVAL_R_GCC_AR5_CY5.a(mAbassi_EVAL_A9_GCC_2.o)
                0x02a80f58                g_StrvTick
 .bss.g_TaskList
                0x02a80f5c        0x4 ../../mAbassi/Platform/lib\lib_mAbassi_EVAL_R_GCC_AR5_CY5.a(mAbassi_EVAL_A9_GCC_2.o)
                0x02a80f5c                g_TaskList
 .bss.g_TaskRdy
                0x02a80f60       0x84 ../../mAbassi/Platform/lib\lib_mAbassi_EVAL_R_GCC_AR5_CY5.a(mAbassi_EVAL_A9_GCC_2.o)
                0x02a80f60                g_TaskRdy
 .bss.g_TimSrvChkBusy
                0x02a80fe4        0x4 ../../mAbassi/Platform/lib\lib_mAbassi_EVAL_R_GCC_AR5_CY5.a(mAbassi_EVAL_A9_GCC_2.o)
                0x02a80fe4                g_TimSrvChkBusy
 .bss.g_TimSrvList
                0x02a80fe8        0x4 ../../mAbassi/Platform/lib\lib_mAbassi_EVAL_R_GCC_AR5_CY5.a(mAbassi_EVAL_A9_GCC_2.o)
                0x02a80fe8                g_TimSrvList
 .bss.g_TimeOutChkBusy
                0x02a80fec        0x4 ../../mAbassi/Platform/lib\lib_mAbassi_EVAL_R_GCC_AR5_CY5.a(mAbassi_EVAL_A9_GCC_2.o)
                0x02a80fec                g_TimeOutChkBusy
 .bss.g_TimeOutList
                0x02a80ff0        0x4 ../../mAbassi/Platform/lib\lib_mAbassi_EVAL_R_GCC_AR5_CY5.a(mAbassi_EVAL_A9_GCC_2.o)
                0x02a80ff0                g_TimeOutList
 .bss.g__OSmutex
                0x02a80ff4       0x24 ../../mAbassi/Platform/lib\lib_mAbassi_EVAL_R_GCC_AR5_CY5.a(mAbassi_EVAL_A9_GCC_2.o)
 *fill*         0x02a81018       0xe8 
 .bss           0x02a81100      0x200 ../../mAbassi/Platform/lib\lib_mAbassi_EVAL_R_GCC_AR5_CY5.a(mAbassi_EVAL_GCC_AR5_CY5.o)
 .bss           0x02a81300        0x4 ../../mAbassi/Platform/lib\lib_mAbassi_EVAL_R_GCC_AR5_CY5.a(ARMv7_SMP_L1_L2_GCC_AR5_CY5.o)
 .bss           0x02a81304       0x34 c:/intelfpga/18.0/embedded/host_tools/mentor/gnu/arm/baremetal/bin/../lib/gcc/arm-altera-eabi/6.2.0/../../../../arm-altera-eabi/lib\libc.a(lib_a-mallocr.o)
                0x02a81304                __malloc_top_pad
                0x02a81308                __malloc_current_mallinfo
                0x02a81330                __malloc_max_sbrked_mem
                0x02a81334                __malloc_max_total_mem
 .bss           0x02a81338        0x8 c:/intelfpga/18.0/embedded/host_tools/mentor/gnu/arm/baremetal/bin/../lib/gcc/arm-altera-eabi/6.2.0/../../../../arm-altera-eabi/lib\libc.a(lib_a-findfp.o)
 *(COMMON)
                0x02a81340                . = ALIGN (0x8)
 *(.ram.b .bss.ram)
                0x02a81340                . = ALIGN (0x8)
                0x02a81340                __bss_end__ = .
                0x02a81340                _ebss = .

.memdrive       0x02a81340 0x10000000
                0x02a81340                . = ALIGN (0x8)
                0x02a81340                G_MemDrvBase = .
                0x12a81340                . = (. + _MDRV_SIZE)
 *fill*         0x02a81340 0x10000000 
                0x12a81340                G_MemDrvEnd = .

.stack_dummy
 *(.stack*)

.heap           0x12a81340  0xd578cc0
                0x12a81340                _end = .
                0x12a81340                __end = .
                0x12a81340                __end__ = .
                [!provide]                PROVIDE (end, .)
                0x12a81340                PROVIDE (__cs3_heap_start, .)
 *(.heap*)
                0x1fffa000                . = (((((((__cs3_region_start_ram + LENGTH (ram)) - ((_SUPERVISOR_STACK_SIZE + 0x7) & 0xfffffff8)) - ((_ABORT_STACK_SIZE + 0x7) & 0xfffffff8)) - ((_FIQ_STACK_SIZE + 0x7) & 0xfffffff8)) - ((_IRQ_STACK_SIZE + 0x7) & 0xfffffff8)) - ((_UNDEF_STACK_SIZE + 0x7) & 0xfffffff8)) - ((_STACK_SIZE + 0x7) & 0xfffffff8))
 *fill*         0x12a81340  0xd578cc0 
                0x1fffa000                __HeapLimit = .
                0x1fffa000                PROVIDE (__cs3_heap_end, .)

.stack          0x1fffa000     0x6000
                0x1fffa800                . = (. + _SUPERVISOR_STACK_SIZE)
 *fill*         0x1fffa000      0x800 
                0x1fffa800                . = ALIGN (0x8)
                0x1fffa800                __supervisor_stack = .
                0x1fffb000                . = (. + _ABORT_STACK_SIZE)
 *fill*         0x1fffa800      0x800 
                0x1fffb000                . = ALIGN (0x8)
                0x1fffb000                __abort_stack = .
                0x1fffb800                . = (. + _FIQ_STACK_SIZE)
 *fill*         0x1fffb000      0x800 
                0x1fffb800                . = ALIGN (0x8)
                0x1fffb800                __fiq_stack = .
                0x1fffd800                . = (. + _IRQ_STACK_SIZE)
 *fill*         0x1fffb800     0x2000 
                0x1fffd800                . = ALIGN (0x8)
                0x1fffd800                __irq_stack = .
                0x1fffe000                . = (. + _UNDEF_STACK_SIZE)
 *fill*         0x1fffd800      0x800 
                0x1fffe000                . = ALIGN (0x8)
                0x1fffe000                __undef_stack = .
                0x20000000                . = (. + _STACK_SIZE)
 *fill*         0x1fffe000     0x2000 
                0x20000000                __cs3_region_end_ram = (__cs3_region_start_ram + LENGTH (ram))
                0x1e000000                __cs3_region_size_ram = LENGTH (ram)
                0x02000000                __cs3_region_init_ram = LOADADDR (.text)
                0x001ad5e0                __cs3_region_init_size_ram = (_edata - ADDR (.text))
                0x108d3d60                __cs3_region_zero_size_ram = (_end - _edata)
                0x20000000                __StackTop = (ORIGIN (ram) + LENGTH (ram))
                0x1fffa000                __StackLimit = (__StackTop - SIZEOF (.stack))
                [!provide]                PROVIDE (__stack, __StackTop)
                0x20000000                PROVIDE (__cs3_stack, __StackTop)

.uncached       0xffff0000     0x8000
 *(.uncached)
 .uncached      0xffff0000     0x8000 ../../mAbassi/Platform/lib\lib_mAbassi_EVAL_R_GCC_AR5_CY5.a(ARMv7_SMP_L1_L2_GCC_AR5_CY5.o)
                0xffff0000                L1PageTbl
 *(.uncached.*)

.stab
 *(.stab)

.stabstr
 *(.stabstr)

.debug
 *(.debug)

.line
 *(.line)

.debug_srcinfo
 *(.debug_srcinfo)

.debug_sfnames
 *(.debug_sfnames)

.debug_aranges  0x00000000     0x1900
 *(.debug_aranges)
 .debug_aranges
                0x00000000       0x28 Main_mAbassi.o
 .debug_aranges
                0x00000028       0x68 MyApp_Web.o
 .debug_aranges
                0x00000090       0xb8 MyFatFS.o
 .debug_aranges
                0x00000148      0x138 SysCall_noFS.o
 .debug_aranges
                0x00000280       0x20 TIMERinit.o
 .debug_aranges
                0x000002a0       0x78 CGI_SSI.o
 .debug_aranges
                0x00000318       0x40 NetAddr.o
 .debug_aranges
                0x00000358       0x88 WebServer.o
 .debug_aranges
                0x000003e0       0x28 httpserver-netconn.o
 .debug_aranges
                0x00000408       0x20 arm_acp.o
 .debug_aranges
                0x00000428       0xd0 arm_pl330.o
 .debug_aranges
                0x000004f8       0x48 alt_gpio.o
 .debug_aranges
                0x00000540      0x230 dw_ethernet.o
 .debug_aranges
                0x00000770       0x68 dw_i2c.o
 .debug_aranges
                0x000007d8       0x48 dw_uart.o
 .debug_aranges
                0x00000820       0x90 dw_sdmmc.o
 .debug_aranges
                0x000008b0      0x118 alt_generalpurpose_io.o
 .debug_aranges
                0x000009c8       0x98 api_lib.o
 .debug_aranges
                0x00000a60       0xd8 api_msg.o
 .debug_aranges
                0x00000b38       0x18 autoip.o
 .debug_aranges
                0x00000b50       0x28 def.o
 .debug_aranges
                0x00000b78       0xa8 dhcp.o
 .debug_aranges
                0x00000c20       0x18 dns.o
 .debug_aranges
                0x00000c38       0x20 err.o
 .debug_aranges
                0x00000c58       0x60 etharp.o
 .debug_aranges
                0x00000cb8       0x80 ethernetif.o
 .debug_aranges
                0x00000d38       0x30 icmp.o
 .debug_aranges
                0x00000d68       0x18 igmp.o
 .debug_aranges
                0x00000d80       0x18 inet.o
 .debug_aranges
                0x00000d98       0x38 inet_chksum.o
 .debug_aranges
                0x00000dd0       0x20 init.o
 .debug_aranges
                0x00000df0       0x38 ip.o
 .debug_aranges
                0x00000e28       0x48 ip_addr.o
 .debug_aranges
                0x00000e70       0x40 ip_frag.o
 .debug_aranges
                0x00000eb0       0x40 mem.o
 .debug_aranges
                0x00000ef0       0x30 memp.o
 .debug_aranges
                0x00000f20       0x60 netbuf.o
 .debug_aranges
                0x00000f80       0x18 netdb.o
 .debug_aranges
                0x00000f98       0x80 netif.o
 .debug_aranges
                0x00001018       0x18 netifapi.o
 .debug_aranges
                0x00001030       0xb0 pbuf.o
 .debug_aranges
                0x000010e0       0x58 raw.o
 .debug_aranges
                0x00001138       0x18 stats.o
 .debug_aranges
                0x00001150       0x20 sys.o
 .debug_aranges
                0x00001170       0xc8 sys_arch.o
 .debug_aranges
                0x00001238       0x18 sockets.o
 .debug_aranges
                0x00001250      0x130 tcp.o
 .debug_aranges
                0x00001380       0x38 tcp_in.o
 .debug_aranges
                0x000013b8       0x70 tcp_out.o
 .debug_aranges
                0x00001428       0x80 tcpip.o
 .debug_aranges
                0x000014a8       0x68 timers.o
 .debug_aranges
                0x00001510       0x70 udp.o
 .debug_aranges
                0x00001580       0x48 Abassi_FatFS.o
 .debug_aranges
                0x000015c8       0x68 Media_FatFS.o
 .debug_aranges
                0x00001630       0x58 MediaIF.o
 .debug_aranges
                0x00001688       0x28 SysCall_CY5.o
 .debug_aranges
                0x000016b0      0x1d0 ff.o
 .debug_aranges
                0x00001880       0x30 ffunicode.o
 .debug_aranges
                0x000018b0       0x38 fs.o
 .debug_aranges
                0x000018e8       0x18 mAbassiCfgA9.o

.debug_pubnames
 *(.debug_pubnames)

.debug_info     0x00000000    0x7b025
 *(.debug_info .gnu.linkonce.wi.*)
 .debug_info    0x00000000     0x179f Main_mAbassi.o
 .debug_info    0x0000179f     0x2753 MyApp_Web.o
 .debug_info    0x00003ef2     0x3820 MyFatFS.o
 .debug_info    0x00007712     0x1f62 SysCall_noFS.o
 .debug_info    0x00009674      0xe1b TIMERinit.o
 .debug_info    0x0000a48f     0x26a2 CGI_SSI.o
 .debug_info    0x0000cb31     0x204a NetAddr.o
 .debug_info    0x0000eb7b     0x2b6c WebServer.o
 .debug_info    0x000116e7     0x2920 httpserver-netconn.o
 .debug_info    0x00014007      0x11a arm_acp.o
 .debug_info    0x00014121     0x476d arm_pl330.o
 .debug_info    0x0001888e     0x110a alt_gpio.o
 .debug_info    0x00019998     0x5208 dw_ethernet.o
 .debug_info    0x0001eba0     0x24b7 dw_i2c.o
 .debug_info    0x00021057     0x25e6 dw_uart.o
 .debug_info    0x0002363d     0x3678 dw_sdmmc.o
 .debug_info    0x00026cb5     0x23de alt_generalpurpose_io.o
 .debug_info    0x00029093     0x2aa1 api_lib.o
 .debug_info    0x0002bb34     0x356f api_msg.o
 .debug_info    0x0002f0a3      0xe1f autoip.o
 .debug_info    0x0002fec2      0xf07 def.o
 .debug_info    0x00030dc9     0x333b dhcp.o
 .debug_info    0x00034104      0xe1f dns.o
 .debug_info    0x00034f23      0xe99 err.o
 .debug_info    0x00035dbc     0x2aad etharp.o
 .debug_info    0x00038869     0x2959 ethernetif.o
 .debug_info    0x0003b1c2     0x17ac icmp.o
 .debug_info    0x0003c96e      0xe1f igmp.o
 .debug_info    0x0003d78d      0xe7f inet.o
 .debug_info    0x0003e60c     0x1393 inet_chksum.o
 .debug_info    0x0003f99f     0x1963 init.o
 .debug_info    0x00041302     0x201d ip.o
 .debug_info    0x0004331f     0x1475 ip_addr.o
 .debug_info    0x00044794     0x1f6f ip_frag.o
 .debug_info    0x00046703     0x1323 mem.o
 .debug_info    0x00047a26     0x1b3d memp.o
 .debug_info    0x00049563     0x12ec netbuf.o
 .debug_info    0x0004a84f      0xe1f netdb.o
 .debug_info    0x0004b66e     0x20f7 netif.o
 .debug_info    0x0004d765      0xe1f netifapi.o
 .debug_info    0x0004e584     0x2965 pbuf.o
 .debug_info    0x00050ee9     0x189d raw.o
 .debug_info    0x00052786      0xe1f stats.o
 .debug_info    0x000535a5      0xf2e sys.o
 .debug_info    0x000544d3     0x1f11 sys_arch.o
 .debug_info    0x000563e4      0xe1f sockets.o
 .debug_info    0x00057203     0x3669 tcp.o
 .debug_info    0x0005a86c     0x2457 tcp_in.o
 .debug_info    0x0005ccc3     0x2c1b tcp_out.o
 .debug_info    0x0005f8de     0x1f8c tcpip.o
 .debug_info    0x0006186a     0x230c timers.o
 .debug_info    0x00063b76     0x1fe6 udp.o
 .debug_info    0x00065b5c     0x103e Abassi_FatFS.o
 .debug_info    0x00066b9a     0x12a9 Media_FatFS.o
 .debug_info    0x00067e43      0xf56 MediaIF.o
 .debug_info    0x00068d99     0x103e SysCall_CY5.o
 .debug_info    0x00069dd7     0xdef4 ff.o
 .debug_info    0x00077ccb      0xf9b ffunicode.o
 .debug_info    0x00078c66     0x14b9 fs.o
 .debug_info    0x0007a11f      0xf06 mAbassiCfgA9.o

.debug_abbrev   0x00000000     0xc004
 *(.debug_abbrev)
 .debug_abbrev  0x00000000      0x272 Main_mAbassi.o
 .debug_abbrev  0x00000272      0x322 MyApp_Web.o
 .debug_abbrev  0x00000594      0x4cd MyFatFS.o
 .debug_abbrev  0x00000a61      0x391 SysCall_noFS.o
 .debug_abbrev  0x00000df2      0x1f3 TIMERinit.o
 .debug_abbrev  0x00000fe5      0x3e5 CGI_SSI.o
 .debug_abbrev  0x000013ca      0x350 NetAddr.o
 .debug_abbrev  0x0000171a      0x45b WebServer.o
 .debug_abbrev  0x00001b75      0x33a httpserver-netconn.o
 .debug_abbrev  0x00001eaf       0xac arm_acp.o
 .debug_abbrev  0x00001f5b      0x469 arm_pl330.o
 .debug_abbrev  0x000023c4      0x2be alt_gpio.o
 .debug_abbrev  0x00002682      0x42f dw_ethernet.o
 .debug_abbrev  0x00002ab1      0x3c8 dw_i2c.o
 .debug_abbrev  0x00002e79      0x387 dw_uart.o
 .debug_abbrev  0x00003200      0x3e8 dw_sdmmc.o
 .debug_abbrev  0x000035e8      0x391 alt_generalpurpose_io.o
 .debug_abbrev  0x00003979      0x42e api_lib.o
 .debug_abbrev  0x00003da7      0x4f9 api_msg.o
 .debug_abbrev  0x000042a0      0x1a0 autoip.o
 .debug_abbrev  0x00004440      0x1f1 def.o
 .debug_abbrev  0x00004631      0x4c0 dhcp.o
 .debug_abbrev  0x00004af1      0x1a0 dns.o
 .debug_abbrev  0x00004c91      0x1dc err.o
 .debug_abbrev  0x00004e6d      0x4a9 etharp.o
 .debug_abbrev  0x00005316      0x3c9 ethernetif.o
 .debug_abbrev  0x000056df      0x345 icmp.o
 .debug_abbrev  0x00005a24      0x1a0 igmp.o
 .debug_abbrev  0x00005bc4      0x1a0 inet.o
 .debug_abbrev  0x00005d64      0x2bc inet_chksum.o
 .debug_abbrev  0x00006020      0x231 init.o
 .debug_abbrev  0x00006251      0x364 ip.o
 .debug_abbrev  0x000065b5      0x334 ip_addr.o
 .debug_abbrev  0x000068e9      0x46d ip_frag.o
 .debug_abbrev  0x00006d56      0x331 mem.o
 .debug_abbrev  0x00007087      0x2bb memp.o
 .debug_abbrev  0x00007342      0x283 netbuf.o
 .debug_abbrev  0x000075c5      0x1a0 netdb.o
 .debug_abbrev  0x00007765      0x443 netif.o
 .debug_abbrev  0x00007ba8      0x1a0 netifapi.o
 .debug_abbrev  0x00007d48      0x4d8 pbuf.o
 .debug_abbrev  0x00008220      0x3c3 raw.o
 .debug_abbrev  0x000085e3      0x1a0 stats.o
 .debug_abbrev  0x00008783      0x229 sys.o
 .debug_abbrev  0x000089ac      0x3f9 sys_arch.o
 .debug_abbrev  0x00008da5      0x1a0 sockets.o
 .debug_abbrev  0x00008f45      0x558 tcp.o
 .debug_abbrev  0x0000949d      0x435 tcp_in.o
 .debug_abbrev  0x000098d2      0x49b tcp_out.o
 .debug_abbrev  0x00009d6d      0x3bc tcpip.o
 .debug_abbrev  0x0000a129      0x3d5 timers.o
 .debug_abbrev  0x0000a4fe      0x459 udp.o
 .debug_abbrev  0x0000a957      0x29b Abassi_FatFS.o
 .debug_abbrev  0x0000abf2      0x2e7 Media_FatFS.o
 .debug_abbrev  0x0000aed9      0x2ff MediaIF.o
 .debug_abbrev  0x0000b1d8      0x24d SysCall_CY5.o
 .debug_abbrev  0x0000b425      0x4eb ff.o
 .debug_abbrev  0x0000b910      0x211 ffunicode.o
 .debug_abbrev  0x0000bb21      0x337 fs.o
 .debug_abbrev  0x0000be58      0x1ac mAbassiCfgA9.o

.debug_line     0x00000000    0x1a895
 *(.debug_line)
 .debug_line    0x00000000      0x4ff Main_mAbassi.o
 .debug_line    0x000004ff      0x5f5 MyApp_Web.o
 .debug_line    0x00000af4      0x8e5 MyFatFS.o
 .debug_line    0x000013d9      0x5ff SysCall_noFS.o
 .debug_line    0x000019d8      0x25f TIMERinit.o
 .debug_line    0x00001c37      0x6b9 CGI_SSI.o
 .debug_line    0x000022f0      0x58d NetAddr.o
 .debug_line    0x0000287d      0x853 WebServer.o
 .debug_line    0x000030d0      0x58c httpserver-netconn.o
 .debug_line    0x0000365c      0x187 arm_acp.o
 .debug_line    0x000037e3     0x1069 arm_pl330.o
 .debug_line    0x0000484c      0x342 alt_gpio.o
 .debug_line    0x00004b8e     0x1627 dw_ethernet.o
 .debug_line    0x000061b5      0xa2d dw_i2c.o
 .debug_line    0x00006be2      0x775 dw_uart.o
 .debug_line    0x00007357      0xe42 dw_sdmmc.o
 .debug_line    0x00008199      0xc51 alt_generalpurpose_io.o
 .debug_line    0x00008dea      0x6c3 api_lib.o
 .debug_line    0x000094ad      0xa3c api_msg.o
 .debug_line    0x00009ee9      0x236 autoip.o
 .debug_line    0x0000a11f      0x2a7 def.o
 .debug_line    0x0000a3c6      0xbf6 dhcp.o
 .debug_line    0x0000afbc      0x236 dns.o
 .debug_line    0x0000b1f2      0x2c8 err.o
 .debug_line    0x0000b4ba      0x9cd etharp.o
 .debug_line    0x0000be87      0x724 ethernetif.o
 .debug_line    0x0000c5ab      0x427 icmp.o
 .debug_line    0x0000c9d2      0x236 igmp.o
 .debug_line    0x0000cc08      0x295 inet.o
 .debug_line    0x0000ce9d      0x56d inet_chksum.o
 .debug_line    0x0000d40a      0x3ac init.o
 .debug_line    0x0000d7b6      0x4e8 ip.o
 .debug_line    0x0000dc9e      0x4e8 ip_addr.o
 .debug_line    0x0000e186      0x66f ip_frag.o
 .debug_line    0x0000e7f5      0x483 mem.o
 .debug_line    0x0000ec78      0x3ec memp.o
 .debug_line    0x0000f064      0x3e7 netbuf.o
 .debug_line    0x0000f44b      0x236 netdb.o
 .debug_line    0x0000f681      0x594 netif.o
 .debug_line    0x0000fc15      0x236 netifapi.o
 .debug_line    0x0000fe4b      0x833 pbuf.o
 .debug_line    0x0001067e      0x47a raw.o
 .debug_line    0x00010af8      0x236 stats.o
 .debug_line    0x00010d2e      0x305 sys.o
 .debug_line    0x00011033      0x65b sys_arch.o
 .debug_line    0x0001168e      0x236 sockets.o
 .debug_line    0x000118c4      0xe08 tcp.o
 .debug_line    0x000126cc      0x964 tcp_in.o
 .debug_line    0x00013030      0xa18 tcp_out.o
 .debug_line    0x00013a48      0x572 tcpip.o
 .debug_line    0x00013fba      0x6f5 timers.o
 .debug_line    0x000146af      0x648 udp.o
 .debug_line    0x00014cf7      0x2ec Abassi_FatFS.o
 .debug_line    0x00014fe3      0x38d Media_FatFS.o
 .debug_line    0x00015370      0x3f6 MediaIF.o
 .debug_line    0x00015766      0x2b9 SysCall_CY5.o
 .debug_line    0x00015a1f     0x45cd ff.o
 .debug_line    0x00019fec      0x2fa ffunicode.o
 .debug_line    0x0001a2e6      0x361 fs.o
 .debug_line    0x0001a647      0x24e mAbassiCfgA9.o

.debug_frame    0x00000000     0x7dbc
 *(.debug_frame)
 .debug_frame   0x00000000       0x3c Main_mAbassi.o
 .debug_frame   0x0000003c      0x144 MyApp_Web.o
 .debug_frame   0x00000180      0x350 MyFatFS.o
 .debug_frame   0x000004d0      0x3a8 SysCall_noFS.o
 .debug_frame   0x00000878       0x28 TIMERinit.o
 .debug_frame   0x000008a0      0x18c CGI_SSI.o
 .debug_frame   0x00000a2c       0xac NetAddr.o
 .debug_frame   0x00000ad8      0x27c WebServer.o
 .debug_frame   0x00000d54       0x54 httpserver-netconn.o
 .debug_frame   0x00000da8       0x28 arm_acp.o
 .debug_frame   0x00000dd0      0x3e8 arm_pl330.o
 .debug_frame   0x000011b8       0xe4 alt_gpio.o
 .debug_frame   0x0000129c      0x664 dw_ethernet.o
 .debug_frame   0x00001900      0x1c0 dw_i2c.o
 .debug_frame   0x00001ac0      0x120 dw_uart.o
 .debug_frame   0x00001be0      0x268 dw_sdmmc.o
 .debug_frame   0x00001e48      0x310 alt_generalpurpose_io.o
 .debug_frame   0x00002158      0x244 api_lib.o
 .debug_frame   0x0000239c      0x3c8 api_msg.o
 .debug_frame   0x00002764       0x50 def.o
 .debug_frame   0x000027b4      0x2a4 dhcp.o
 .debug_frame   0x00002a58       0x20 err.o
 .debug_frame   0x00002a78      0x1a4 etharp.o
 .debug_frame   0x00002c1c      0x1a8 ethernetif.o
 .debug_frame   0x00002dc4       0x98 icmp.o
 .debug_frame   0x00002e5c       0xd8 inet_chksum.o
 .debug_frame   0x00002f34       0x2c init.o
 .debug_frame   0x00002f60       0xb8 ip.o
 .debug_frame   0x00003018       0xe8 ip_addr.o
 .debug_frame   0x00003100       0xfc ip_frag.o
 .debug_frame   0x000031fc       0xc4 mem.o
 .debug_frame   0x000032c0       0x74 memp.o
 .debug_frame   0x00003334       0xe8 netbuf.o
 .debug_frame   0x0000341c      0x124 netif.o
 .debug_frame   0x00003540      0x24c pbuf.o
 .debug_frame   0x0000378c       0xf4 raw.o
 .debug_frame   0x00003880       0x34 sys.o
 .debug_frame   0x000038b4      0x278 sys_arch.o
 .debug_frame   0x00003b2c      0x410 tcp.o
 .debug_frame   0x00003f3c       0xec tcp_in.o
 .debug_frame   0x00004028      0x220 tcp_out.o
 .debug_frame   0x00004248      0x170 tcpip.o
 .debug_frame   0x000043b8      0x128 timers.o
 .debug_frame   0x000044e0      0x190 udp.o
 .debug_frame   0x00004670       0x88 Abassi_FatFS.o
 .debug_frame   0x000046f8       0xf0 Media_FatFS.o
 .debug_frame   0x000047e8       0xd4 MediaIF.o
 .debug_frame   0x000048bc       0x40 SysCall_CY5.o
 .debug_frame   0x000048fc      0xac4 ff.o
 .debug_frame   0x000053c0       0x4c ffunicode.o
 .debug_frame   0x0000540c       0x70 fs.o
 .debug_frame   0x0000547c      0x2e4 ../../mAbassi/Platform/lib\lib_mAbassi_EVAL_R_GCC_AR5_CY5.a(mAbassi_EVAL_GCC_AR5_CY5.o)
 .debug_frame   0x00005760       0xa8 ../../mAbassi/Platform/lib\lib_mAbassi_EVAL_R_GCC_AR5_CY5.a(ARMv7_SMP_L1_L2_GCC_AR5_CY5.o)
 .debug_frame   0x00005808       0x40 c:/intelfpga/18.0/embedded/host_tools/mentor/gnu/arm/baremetal/bin/../lib/gcc/arm-altera-eabi/6.2.0/../../../../arm-altera-eabi/lib\libcs3.a(start_c.o)
 .debug_frame   0x00005848       0x20 c:/intelfpga/18.0/embedded/host_tools/mentor/gnu/arm/baremetal/bin/../lib/gcc/arm-altera-eabi/6.2.0\libgcc.a(_udivsi3.o)
 .debug_frame   0x00005868       0x20 c:/intelfpga/18.0/embedded/host_tools/mentor/gnu/arm/baremetal/bin/../lib/gcc/arm-altera-eabi/6.2.0\libgcc.a(_divsi3.o)
 .debug_frame   0x00005888       0x44 c:/intelfpga/18.0/embedded/host_tools/mentor/gnu/arm/baremetal/bin/../lib/gcc/arm-altera-eabi/6.2.0\libgcc.a(_aeabi_ldivmod.o)
 .debug_frame   0x000058cc       0x2c c:/intelfpga/18.0/embedded/host_tools/mentor/gnu/arm/baremetal/bin/../lib/gcc/arm-altera-eabi/6.2.0\libgcc.a(_aeabi_uldivmod.o)
 .debug_frame   0x000058f8       0x48 c:/intelfpga/18.0/embedded/host_tools/mentor/gnu/arm/baremetal/bin/../lib/gcc/arm-altera-eabi/6.2.0\libgcc.a(_udivmoddi4.o)
 .debug_frame   0x00005940       0x34 c:/intelfpga/18.0/embedded/host_tools/mentor/gnu/arm/baremetal/bin/../lib/gcc/arm-altera-eabi/6.2.0/../../../../arm-altera-eabi/lib\libc.a(lib_a-calloc.o)
 .debug_frame   0x00005974       0x34 c:/intelfpga/18.0/embedded/host_tools/mentor/gnu/arm/baremetal/bin/../lib/gcc/arm-altera-eabi/6.2.0/../../../../arm-altera-eabi/lib\libc.a(lib_a-callocr.o)
 .debug_frame   0x000059a8       0x2c c:/intelfpga/18.0/embedded/host_tools/mentor/gnu/arm/baremetal/bin/../lib/gcc/arm-altera-eabi/6.2.0/../../../../arm-altera-eabi/lib\libc.a(lib_a-errno.o)
 .debug_frame   0x000059d4       0x80 c:/intelfpga/18.0/embedded/host_tools/mentor/gnu/arm/baremetal/bin/../lib/gcc/arm-altera-eabi/6.2.0/../../../../arm-altera-eabi/lib\libc.a(lib_a-fwrite.o)
 .debug_frame   0x00005a54       0x64 c:/intelfpga/18.0/embedded/host_tools/mentor/gnu/arm/baremetal/bin/../lib/gcc/arm-altera-eabi/6.2.0/../../../../arm-altera-eabi/lib\libc.a(lib_a-gets.o)
 .debug_frame   0x00005ab8       0x34 c:/intelfpga/18.0/embedded/host_tools/mentor/gnu/arm/baremetal/bin/../lib/gcc/arm-altera-eabi/6.2.0/../../../../arm-altera-eabi/lib\libc.a(lib_a-init.o)
 .debug_frame   0x00005aec       0x48 c:/intelfpga/18.0/embedded/host_tools/mentor/gnu/arm/baremetal/bin/../lib/gcc/arm-altera-eabi/6.2.0/../../../../arm-altera-eabi/lib\libc.a(lib_a-malloc.o)
 .debug_frame   0x00005b34       0x7c c:/intelfpga/18.0/embedded/host_tools/mentor/gnu/arm/baremetal/bin/../lib/gcc/arm-altera-eabi/6.2.0/../../../../arm-altera-eabi/lib\libc.a(lib_a-mallocr.o)
 .debug_frame   0x00005bb0       0x3c c:/intelfpga/18.0/embedded/host_tools/mentor/gnu/arm/baremetal/bin/../lib/gcc/arm-altera-eabi/6.2.0/../../../../arm-altera-eabi/lib\libc.a(lib_a-memcmp.o)
 .debug_frame   0x00005bec       0x44 c:/intelfpga/18.0/embedded/host_tools/mentor/gnu/arm/baremetal/bin/../lib/gcc/arm-altera-eabi/6.2.0/../../../../arm-altera-eabi/lib\libc.a(lib_a-memcpy-stub.o)
 .debug_frame   0x00005c30       0x40 c:/intelfpga/18.0/embedded/host_tools/mentor/gnu/arm/baremetal/bin/../lib/gcc/arm-altera-eabi/6.2.0/../../../../arm-altera-eabi/lib\libc.a(lib_a-memmove.o)
 .debug_frame   0x00005c70       0x30 c:/intelfpga/18.0/embedded/host_tools/mentor/gnu/arm/baremetal/bin/../lib/gcc/arm-altera-eabi/6.2.0/../../../../arm-altera-eabi/lib\libc.a(lib_a-memset.o)
 .debug_frame   0x00005ca0       0x80 c:/intelfpga/18.0/embedded/host_tools/mentor/gnu/arm/baremetal/bin/../lib/gcc/arm-altera-eabi/6.2.0/../../../../arm-altera-eabi/lib\libc.a(lib_a-mktime.o)
 .debug_frame   0x00005d20       0x74 c:/intelfpga/18.0/embedded/host_tools/mentor/gnu/arm/baremetal/bin/../lib/gcc/arm-altera-eabi/6.2.0/../../../../arm-altera-eabi/lib\libc.a(lib_a-printf.o)
 .debug_frame   0x00005d94       0x48 c:/intelfpga/18.0/embedded/host_tools/mentor/gnu/arm/baremetal/bin/../lib/gcc/arm-altera-eabi/6.2.0/../../../../arm-altera-eabi/lib\libc.a(lib_a-putchar.o)
 .debug_frame   0x00005ddc       0x64 c:/intelfpga/18.0/embedded/host_tools/mentor/gnu/arm/baremetal/bin/../lib/gcc/arm-altera-eabi/6.2.0/../../../../arm-altera-eabi/lib\libc.a(lib_a-puts.o)
 .debug_frame   0x00005e40       0x34 c:/intelfpga/18.0/embedded/host_tools/mentor/gnu/arm/baremetal/bin/../lib/gcc/arm-altera-eabi/6.2.0/../../../../arm-altera-eabi/lib\libc.a(lib_a-realloc.o)
 .debug_frame   0x00005e74       0x60 c:/intelfpga/18.0/embedded/host_tools/mentor/gnu/arm/baremetal/bin/../lib/gcc/arm-altera-eabi/6.2.0/../../../../arm-altera-eabi/lib\libc.a(lib_a-reallocr.o)
 .debug_frame   0x00005ed4       0x54 c:/intelfpga/18.0/embedded/host_tools/mentor/gnu/arm/baremetal/bin/../lib/gcc/arm-altera-eabi/6.2.0/../../../../arm-altera-eabi/lib\libc.a(lib_a-rget.o)
 .debug_frame   0x00005f28       0x58 c:/intelfpga/18.0/embedded/host_tools/mentor/gnu/arm/baremetal/bin/../lib/gcc/arm-altera-eabi/6.2.0/../../../../arm-altera-eabi/lib\libc.a(lib_a-setvbuf.o)
 .debug_frame   0x00005f80       0x74 c:/intelfpga/18.0/embedded/host_tools/mentor/gnu/arm/baremetal/bin/../lib/gcc/arm-altera-eabi/6.2.0/../../../../arm-altera-eabi/lib\libc.a(lib_a-sprintf.o)
 .debug_frame   0x00005ff4       0x2c c:/intelfpga/18.0/embedded/host_tools/mentor/gnu/arm/baremetal/bin/../lib/gcc/arm-altera-eabi/6.2.0/../../../../arm-altera-eabi/lib\libc.a(lib_a-stpcpy.o)
 .debug_frame   0x00006020       0x54 c:/intelfpga/18.0/embedded/host_tools/mentor/gnu/arm/baremetal/bin/../lib/gcc/arm-altera-eabi/6.2.0/../../../../arm-altera-eabi/lib\libc.a(lib_a-strchr.o)
 .debug_frame   0x00006074       0x40 c:/intelfpga/18.0/embedded/host_tools/mentor/gnu/arm/baremetal/bin/../lib/gcc/arm-altera-eabi/6.2.0/../../../../arm-altera-eabi/lib\libc.a(lib_a-strcmp.o)
 .debug_frame   0x000060b4       0x20 c:/intelfpga/18.0/embedded/host_tools/mentor/gnu/arm/baremetal/bin/../lib/gcc/arm-altera-eabi/6.2.0/../../../../arm-altera-eabi/lib\libc.a(lib_a-strcpy.o)
 .debug_frame   0x000060d4       0x2c c:/intelfpga/18.0/embedded/host_tools/mentor/gnu/arm/baremetal/bin/../lib/gcc/arm-altera-eabi/6.2.0/../../../../arm-altera-eabi/lib\libc.a(lib_a-strcspn.o)
 .debug_frame   0x00006100       0x20 c:/intelfpga/18.0/embedded/host_tools/mentor/gnu/arm/baremetal/bin/../lib/gcc/arm-altera-eabi/6.2.0/../../../../arm-altera-eabi/lib\libc.a(lib_a-strlen-stub.o)
 .debug_frame   0x00006120       0x50 c:/intelfpga/18.0/embedded/host_tools/mentor/gnu/arm/baremetal/bin/../lib/gcc/arm-altera-eabi/6.2.0/../../../../arm-altera-eabi/lib\libc.a(lib_a-strncmp.o)
 .debug_frame   0x00006170       0x40 c:/intelfpga/18.0/embedded/host_tools/mentor/gnu/arm/baremetal/bin/../lib/gcc/arm-altera-eabi/6.2.0/../../../../arm-altera-eabi/lib\libc.a(lib_a-strncpy.o)
 .debug_frame   0x000061b0       0x34 c:/intelfpga/18.0/embedded/host_tools/mentor/gnu/arm/baremetal/bin/../lib/gcc/arm-altera-eabi/6.2.0/../../../../arm-altera-eabi/lib\libc.a(lib_a-strspn.o)
 .debug_frame   0x000061e4      0x108 c:/intelfpga/18.0/embedded/host_tools/mentor/gnu/arm/baremetal/bin/../lib/gcc/arm-altera-eabi/6.2.0/../../../../arm-altera-eabi/lib\libc.a(lib_a-strstr.o)
 .debug_frame   0x000062ec       0xd0 c:/intelfpga/18.0/embedded/host_tools/mentor/gnu/arm/baremetal/bin/../lib/gcc/arm-altera-eabi/6.2.0/../../../../arm-altera-eabi/lib\libc.a(lib_a-strtol.o)
 .debug_frame   0x000063bc       0xd0 c:/intelfpga/18.0/embedded/host_tools/mentor/gnu/arm/baremetal/bin/../lib/gcc/arm-altera-eabi/6.2.0/../../../../arm-altera-eabi/lib\libc.a(lib_a-strtoul.o)
 .debug_frame   0x0000648c       0x50 c:/intelfpga/18.0/embedded/host_tools/mentor/gnu/arm/baremetal/bin/../lib/gcc/arm-altera-eabi/6.2.0/../../../../arm-altera-eabi/lib\libc.a(lib_a-svfprintf.o)
 .debug_frame   0x000064dc       0x4c c:/intelfpga/18.0/embedded/host_tools/mentor/gnu/arm/baremetal/bin/../lib/gcc/arm-altera-eabi/6.2.0/../../../../arm-altera-eabi/lib\libc.a(lib_a-tzcalc_limits.o)
 .debug_frame   0x00006528       0x48 c:/intelfpga/18.0/embedded/host_tools/mentor/gnu/arm/baremetal/bin/../lib/gcc/arm-altera-eabi/6.2.0/../../../../arm-altera-eabi/lib\libc.a(lib_a-tzset.o)
 .debug_frame   0x00006570       0x7c c:/intelfpga/18.0/embedded/host_tools/mentor/gnu/arm/baremetal/bin/../lib/gcc/arm-altera-eabi/6.2.0/../../../../arm-altera-eabi/lib\libc.a(lib_a-tzset_r.o)
 .debug_frame   0x000065ec       0xcc c:/intelfpga/18.0/embedded/host_tools/mentor/gnu/arm/baremetal/bin/../lib/gcc/arm-altera-eabi/6.2.0/../../../../arm-altera-eabi/lib\libc.a(lib_a-vfprintf.o)
 .debug_frame   0x000066b8       0x60 c:/intelfpga/18.0/embedded/host_tools/mentor/gnu/arm/baremetal/bin/../lib/gcc/arm-altera-eabi/6.2.0/../../../../arm-altera-eabi/lib\libc.a(lib_a-wbuf.o)
 .debug_frame   0x00006718       0x40 c:/intelfpga/18.0/embedded/host_tools/mentor/gnu/arm/baremetal/bin/../lib/gcc/arm-altera-eabi/6.2.0/../../../../arm-altera-eabi/lib\libc.a(lib_a-wsetup.o)
 .debug_frame   0x00006758       0x3c c:/intelfpga/18.0/embedded/host_tools/mentor/gnu/arm/baremetal/bin/../lib/gcc/arm-altera-eabi/6.2.0/../../../../arm-altera-eabi/lib\libc.a(lib_a-div.o)
 .debug_frame   0x00006794       0xac c:/intelfpga/18.0/embedded/host_tools/mentor/gnu/arm/baremetal/bin/../lib/gcc/arm-altera-eabi/6.2.0/../../../../arm-altera-eabi/lib\libc.a(lib_a-dtoa.o)
 .debug_frame   0x00006840       0xac c:/intelfpga/18.0/embedded/host_tools/mentor/gnu/arm/baremetal/bin/../lib/gcc/arm-altera-eabi/6.2.0/../../../../arm-altera-eabi/lib\libc.a(lib_a-fflush.o)
 .debug_frame   0x000068ec      0x1f0 c:/intelfpga/18.0/embedded/host_tools/mentor/gnu/arm/baremetal/bin/../lib/gcc/arm-altera-eabi/6.2.0/../../../../arm-altera-eabi/lib\libc.a(lib_a-findfp.o)
 .debug_frame   0x00006adc       0x70 c:/intelfpga/18.0/embedded/host_tools/mentor/gnu/arm/baremetal/bin/../lib/gcc/arm-altera-eabi/6.2.0/../../../../arm-altera-eabi/lib\libc.a(lib_a-freer.o)
 .debug_frame   0x00006b4c       0x80 c:/intelfpga/18.0/embedded/host_tools/mentor/gnu/arm/baremetal/bin/../lib/gcc/arm-altera-eabi/6.2.0/../../../../arm-altera-eabi/lib\libc.a(lib_a-fvwrite.o)
 .debug_frame   0x00006bcc       0x80 c:/intelfpga/18.0/embedded/host_tools/mentor/gnu/arm/baremetal/bin/../lib/gcc/arm-altera-eabi/6.2.0/../../../../arm-altera-eabi/lib\libc.a(lib_a-fwalk.o)
 .debug_frame   0x00006c4c       0x70 c:/intelfpga/18.0/embedded/host_tools/mentor/gnu/arm/baremetal/bin/../lib/gcc/arm-altera-eabi/6.2.0/../../../../arm-altera-eabi/lib\libc.a(lib_a-getenv_r.o)
 .debug_frame   0x00006cbc       0x20 c:/intelfpga/18.0/embedded/host_tools/mentor/gnu/arm/baremetal/bin/../lib/gcc/arm-altera-eabi/6.2.0/../../../../arm-altera-eabi/lib\libc.a(lib_a-gettzinfo.o)
 .debug_frame   0x00006cdc       0xb8 c:/intelfpga/18.0/embedded/host_tools/mentor/gnu/arm/baremetal/bin/../lib/gcc/arm-altera-eabi/6.2.0/../../../../arm-altera-eabi/lib\libc.a(lib_a-locale.o)
 .debug_frame   0x00006d94       0x58 c:/intelfpga/18.0/embedded/host_tools/mentor/gnu/arm/baremetal/bin/../lib/gcc/arm-altera-eabi/6.2.0/../../../../arm-altera-eabi/lib\libc.a(lib_a-localeconv.o)
 .debug_frame   0x00006dec       0x8c c:/intelfpga/18.0/embedded/host_tools/mentor/gnu/arm/baremetal/bin/../lib/gcc/arm-altera-eabi/6.2.0/../../../../arm-altera-eabi/lib\libc.a(lib_a-makebuf.o)
 .debug_frame   0x00006e78       0x58 c:/intelfpga/18.0/embedded/host_tools/mentor/gnu/arm/baremetal/bin/../lib/gcc/arm-altera-eabi/6.2.0/../../../../arm-altera-eabi/lib\libc.a(lib_a-mbtowc_r.o)
 .debug_frame   0x00006ed0       0x38 c:/intelfpga/18.0/embedded/host_tools/mentor/gnu/arm/baremetal/bin/../lib/gcc/arm-altera-eabi/6.2.0/../../../../arm-altera-eabi/lib\libc.a(lib_a-memchr-stub.o)
 .debug_frame   0x00006f08      0x304 c:/intelfpga/18.0/embedded/host_tools/mentor/gnu/arm/baremetal/bin/../lib/gcc/arm-altera-eabi/6.2.0/../../../../arm-altera-eabi/lib\libc.a(lib_a-mprec.o)
 .debug_frame   0x0000720c       0x80 c:/intelfpga/18.0/embedded/host_tools/mentor/gnu/arm/baremetal/bin/../lib/gcc/arm-altera-eabi/6.2.0/../../../../arm-altera-eabi/lib\libc.a(lib_a-putc.o)
 .debug_frame   0x0000728c       0x7c c:/intelfpga/18.0/embedded/host_tools/mentor/gnu/arm/baremetal/bin/../lib/gcc/arm-altera-eabi/6.2.0/../../../../arm-altera-eabi/lib\libc.a(lib_a-refill.o)
 .debug_frame   0x00007308       0x78 c:/intelfpga/18.0/embedded/host_tools/mentor/gnu/arm/baremetal/bin/../lib/gcc/arm-altera-eabi/6.2.0/../../../../arm-altera-eabi/lib\libc.a(lib_a-siscanf.o)
 .debug_frame   0x00007380       0x9c c:/intelfpga/18.0/embedded/host_tools/mentor/gnu/arm/baremetal/bin/../lib/gcc/arm-altera-eabi/6.2.0/../../../../arm-altera-eabi/lib\libc.a(lib_a-stdio.o)
 .debug_frame   0x0000741c       0x9c c:/intelfpga/18.0/embedded/host_tools/mentor/gnu/arm/baremetal/bin/../lib/gcc/arm-altera-eabi/6.2.0/../../../../arm-altera-eabi/lib\libc.a(lib_a-svfiprintf.o)
 .debug_frame   0x000074b8      0x100 c:/intelfpga/18.0/embedded/host_tools/mentor/gnu/arm/baremetal/bin/../lib/gcc/arm-altera-eabi/6.2.0/../../../../arm-altera-eabi/lib\libc.a(lib_a-svfiscanf.o)
 .debug_frame   0x000075b8       0xa0 c:/intelfpga/18.0/embedded/host_tools/mentor/gnu/arm/baremetal/bin/../lib/gcc/arm-altera-eabi/6.2.0/../../../../arm-altera-eabi/lib\libc.a(lib_a-ungetc.o)
 .debug_frame   0x00007658      0x104 c:/intelfpga/18.0/embedded/host_tools/mentor/gnu/arm/baremetal/bin/../lib/gcc/arm-altera-eabi/6.2.0/../../../../arm-altera-eabi/lib\libc.a(lib_a-vfiprintf.o)
 .debug_frame   0x0000775c       0x48 c:/intelfpga/18.0/embedded/host_tools/mentor/gnu/arm/baremetal/bin/../lib/gcc/arm-altera-eabi/6.2.0/../../../../arm-altera-eabi/lib\libc.a(lib_a-wctomb_r.o)
 .debug_frame   0x000077a4       0x70 c:/intelfpga/18.0/embedded/host_tools/mentor/gnu/arm/baremetal/bin/../lib/gcc/arm-altera-eabi/6.2.0/../../../../arm-altera-eabi/lib\libc.a(lib_a-fclose.o)
 .debug_frame   0x00007814       0xbc c:/intelfpga/18.0/embedded/host_tools/mentor/gnu/arm/baremetal/bin/../lib/gcc/arm-altera-eabi/6.2.0/../../../../arm-altera-eabi/lib\libc.a(lib_a-fputwc.o)
 .debug_frame   0x000078d0       0x2c c:/intelfpga/18.0/embedded/host_tools/mentor/gnu/arm/baremetal/bin/../lib/gcc/arm-altera-eabi/6.2.0/../../../../arm-altera-eabi/lib\libc.a(lib_a-iswspace.o)
 .debug_frame   0x000078fc       0x78 c:/intelfpga/18.0/embedded/host_tools/mentor/gnu/arm/baremetal/bin/../lib/gcc/arm-altera-eabi/6.2.0/../../../../arm-altera-eabi/lib\libc.a(lib_a-mbrtowc.o)
 .debug_frame   0x00007974       0x34 c:/intelfpga/18.0/embedded/host_tools/mentor/gnu/arm/baremetal/bin/../lib/gcc/arm-altera-eabi/6.2.0/../../../../arm-altera-eabi/lib\libc.a(lib_a-sccl.o)
 .debug_frame   0x000079a8       0xd0 c:/intelfpga/18.0/embedded/host_tools/mentor/gnu/arm/baremetal/bin/../lib/gcc/arm-altera-eabi/6.2.0/../../../../arm-altera-eabi/lib\libc.a(lib_a-strtoll.o)
 .debug_frame   0x00007a78       0xd0 c:/intelfpga/18.0/embedded/host_tools/mentor/gnu/arm/baremetal/bin/../lib/gcc/arm-altera-eabi/6.2.0/../../../../arm-altera-eabi/lib\libc.a(lib_a-strtoull.o)
 .debug_frame   0x00007b48       0x70 c:/intelfpga/18.0/embedded/host_tools/mentor/gnu/arm/baremetal/bin/../lib/gcc/arm-altera-eabi/6.2.0/../../../../arm-altera-eabi/lib\libc.a(lib_a-wcrtomb.o)
 .debug_frame   0x00007bb8       0xac c:/intelfpga/18.0/embedded/host_tools/mentor/gnu/arm/baremetal/bin/../lib/gcc/arm-altera-eabi/6.2.0\libgcc.a(_arm_addsubdf3.o)
 .debug_frame   0x00007c64       0x50 c:/intelfpga/18.0/embedded/host_tools/mentor/gnu/arm/baremetal/bin/../lib/gcc/arm-altera-eabi/6.2.0\libgcc.a(_arm_muldivdf3.o)
 .debug_frame   0x00007cb4       0xc4 c:/intelfpga/18.0/embedded/host_tools/mentor/gnu/arm/baremetal/bin/../lib/gcc/arm-altera-eabi/6.2.0\libgcc.a(_arm_cmpdf2.o)
 .debug_frame   0x00007d78       0x20 c:/intelfpga/18.0/embedded/host_tools/mentor/gnu/arm/baremetal/bin/../lib/gcc/arm-altera-eabi/6.2.0\libgcc.a(_arm_unorddf2.o)
 .debug_frame   0x00007d98       0x24 c:/intelfpga/18.0/embedded/host_tools/mentor/gnu/arm/baremetal/bin/../lib/gcc/arm-altera-eabi/6.2.0\libgcc.a(_arm_fixdfsi.o)

.debug_str      0x00000000     0x8e35
 *(.debug_str)
 .debug_str     0x00000000      0x9ea Main_mAbassi.o
                                0xb6e (size before relaxing)
 .debug_str     0x000009ea     0x2644 MyApp_Web.o
                               0x3122 (size before relaxing)
 .debug_str     0x0000302e      0x54f MyFatFS.o
                                0xf50 (size before relaxing)
 .debug_str     0x0000357d      0x29c SysCall_noFS.o
                                0xcd5 (size before relaxing)
 .debug_str     0x00003819       0x40 TIMERinit.o
                                0x8de (size before relaxing)
 .debug_str     0x00003859      0x243 CGI_SSI.o
                                0xf4a (size before relaxing)
 .debug_str     0x00003a9c      0x124 NetAddr.o
                                0xe8f (size before relaxing)
 .debug_str     0x00003bc0      0x234 WebServer.o
                                0xbba (size before relaxing)
 .debug_str     0x00003df4      0x615 httpserver-netconn.o
                               0x1495 (size before relaxing)
 .debug_str     0x00004409       0x41 arm_acp.o
                                0x1e8 (size before relaxing)
 .debug_str     0x0000444a      0x490 arm_pl330.o
                                0xe2f (size before relaxing)
 .debug_str     0x000048da       0xa1 alt_gpio.o
                                0x993 (size before relaxing)
 .debug_str     0x0000497b      0x6ba dw_ethernet.o
                               0x1098 (size before relaxing)
 .debug_str     0x00005035      0x1f9 dw_i2c.o
                                0xbc0 (size before relaxing)
 .debug_str     0x0000522e      0x18c dw_uart.o
                                0xb13 (size before relaxing)
 .debug_str     0x000053ba      0x212 dw_sdmmc.o
                                0xbff (size before relaxing)
 .debug_str     0x000055cc      0x5ce alt_generalpurpose_io.o
                               0x1418 (size before relaxing)
 .debug_str     0x00005b9a      0x2b4 api_lib.o
                               0x1336 (size before relaxing)
 .debug_str     0x00005e4e      0x3ab api_msg.o
                               0x1532 (size before relaxing)
 .debug_str     0x000061f9       0x30 autoip.o
                                0x8f7 (size before relaxing)
 .debug_str     0x00006229       0x54 def.o
                                0x94f (size before relaxing)
 .debug_str     0x0000627d      0x384 dhcp.o
                               0x1129 (size before relaxing)
 .debug_str     0x00006601       0x28 dns.o
                                0x8ef (size before relaxing)
 .debug_str     0x00006629       0x3e err.o
                                0x920 (size before relaxing)
 .debug_str     0x00006667      0x324 etharp.o
                               0x1182 (size before relaxing)
 .debug_str     0x0000698b      0x1de ethernetif.o
                               0x1180 (size before relaxing)
 .debug_str     0x00006b69      0x164 icmp.o
                                0xcdb (size before relaxing)
 .debug_str     0x00006ccd       0x2e igmp.o
                                0x8f5 (size before relaxing)
 .debug_str     0x00006cfb       0x2e inet.o
                                0x944 (size before relaxing)
 .debug_str     0x00006d29       0xa6 inet_chksum.o
                                0xa7b (size before relaxing)
 .debug_str     0x00006dcf      0x13d init.o
                                0xee9 (size before relaxing)
 .debug_str     0x00006f0c       0xad ip.o
                               0x1128 (size before relaxing)
 .debug_str     0x00006fb9       0x94 ip_addr.o
                                0xae7 (size before relaxing)
 .debug_str     0x0000704d      0x2a4 ip_frag.o
                                0xfaf (size before relaxing)
 .debug_str     0x000072f1       0xa0 mem.o
                                0xa6b (size before relaxing)
 .debug_str     0x00007391       0x72 memp.o
                               0x1035 (size before relaxing)
 .debug_str     0x00007403       0x95 netbuf.o
                                0xbaf (size before relaxing)
 .debug_str     0x00007498       0x29 netdb.o
                                0x8f0 (size before relaxing)
 .debug_str     0x000074c1       0x89 netif.o
                               0x10fb (size before relaxing)
 .debug_str     0x0000754a       0x2c netifapi.o
                                0x8f3 (size before relaxing)
 .debug_str     0x00007576      0x206 pbuf.o
                               0x12ea (size before relaxing)
 .debug_str     0x0000777c       0x43 raw.o
                                0xd4a (size before relaxing)
 .debug_str     0x000077bf       0x2a stats.o
                                0x8f1 (size before relaxing)
 .debug_str     0x000077e9       0x4e sys.o
                                0x96d (size before relaxing)
 .debug_str     0x00007837      0x16f sys_arch.o
                                0xce4 (size before relaxing)
 .debug_str     0x000079a6       0x2b sockets.o
                                0x8f2 (size before relaxing)
 .debug_str     0x000079d1      0x311 tcp.o
                               0x1384 (size before relaxing)
 .debug_str     0x00007ce2      0x154 tcp_in.o
                               0x11f3 (size before relaxing)
 .debug_str     0x00007e36      0x129 tcp_out.o
                               0x1266 (size before relaxing)
 .debug_str     0x00007f5f      0x1eb tcpip.o
                               0x114e (size before relaxing)
 .debug_str     0x0000814a       0xc2 timers.o
                               0x129f (size before relaxing)
 .debug_str     0x0000820c       0x69 udp.o
                                0xfb3 (size before relaxing)
 .debug_str     0x00008275       0x97 Abassi_FatFS.o
                                0x966 (size before relaxing)
 .debug_str     0x0000830c      0x159 Media_FatFS.o
                                0xa6b (size before relaxing)
 .debug_str     0x00008465       0x6f MediaIF.o
                                0x75e (size before relaxing)
 .debug_str     0x000084d4       0x9e SysCall_CY5.o
                                0xa06 (size before relaxing)
 .debug_str     0x00008572      0x51b ff.o
                               0x1230 (size before relaxing)
 .debug_str     0x00008a8d       0x3a ffunicode.o
                                0x901 (size before relaxing)
 .debug_str     0x00008ac7      0x274 fs.o
                                0xbcd (size before relaxing)
 .debug_str     0x00008d3b       0xfa mAbassiCfgA9.o
                                0x98e (size before relaxing)

.debug_loc      0x00000000    0x4307b
 *(.debug_loc)
 .debug_loc     0x00000000      0x139 Main_mAbassi.o
 .debug_loc     0x00000139      0x15b MyApp_Web.o
 .debug_loc     0x00000294     0x21b0 MyFatFS.o
 .debug_loc     0x00002444      0xebf SysCall_noFS.o
 .debug_loc     0x00003303       0x1e TIMERinit.o
 .debug_loc     0x00003321      0x479 CGI_SSI.o
 .debug_loc     0x0000379a      0x2b8 NetAddr.o
 .debug_loc     0x00003a52     0x1ec8 WebServer.o
 .debug_loc     0x0000591a      0x6ab httpserver-netconn.o
 .debug_loc     0x00005fc5      0x207 arm_acp.o
 .debug_loc     0x000061cc     0x4fc8 arm_pl330.o
 .debug_loc     0x0000b194      0x3d7 alt_gpio.o
 .debug_loc     0x0000b56b     0x2f53 dw_ethernet.o
 .debug_loc     0x0000e4be     0x2a14 dw_i2c.o
 .debug_loc     0x00010ed2     0x1d1a dw_uart.o
 .debug_loc     0x00012bec     0x2019 dw_sdmmc.o
 .debug_loc     0x00014c05     0x285e alt_generalpurpose_io.o
 .debug_loc     0x00017463      0xc61 api_lib.o
 .debug_loc     0x000180c4     0x186a api_msg.o
 .debug_loc     0x0001992e       0x42 def.o
 .debug_loc     0x00019970     0x189c dhcp.o
 .debug_loc     0x0001b20c       0x21 err.o
 .debug_loc     0x0001b22d     0x23ae etharp.o
 .debug_loc     0x0001d5db      0x633 ethernetif.o
 .debug_loc     0x0001dc0e      0x31e icmp.o
 .debug_loc     0x0001df2c      0xf8b inet_chksum.o
 .debug_loc     0x0001eeb7      0x44a ip.o
 .debug_loc     0x0001f301      0x6c9 ip_addr.o
 .debug_loc     0x0001f9ca      0xe8b ip_frag.o
 .debug_loc     0x00020855      0x42e mem.o
 .debug_loc     0x00020c83      0x132 memp.o
 .debug_loc     0x00020db5      0x1a1 netbuf.o
 .debug_loc     0x00020f56      0x635 netif.o
 .debug_loc     0x0002158b     0x1583 pbuf.o
 .debug_loc     0x00022b0e      0x4f7 raw.o
 .debug_loc     0x00023005       0x47 sys.o
 .debug_loc     0x0002304c     0x13b9 sys_arch.o
 .debug_loc     0x00024405     0x1dd0 tcp.o
 .debug_loc     0x000261d5      0xa5a tcp_in.o
 .debug_loc     0x00026c2f     0x1a9a tcp_out.o
 .debug_loc     0x000286c9      0x5f7 tcpip.o
 .debug_loc     0x00028cc0      0x82d timers.o
 .debug_loc     0x000294ed      0x9df udp.o
 .debug_loc     0x00029ecc      0x13d Abassi_FatFS.o
 .debug_loc     0x0002a009      0x34c Media_FatFS.o
 .debug_loc     0x0002a355      0x938 MediaIF.o
 .debug_loc     0x0002ac8d       0x3f SysCall_CY5.o
 .debug_loc     0x0002accc    0x17b0b ff.o
 .debug_loc     0x000427d7      0x42e ffunicode.o
 .debug_loc     0x00042c05      0x476 fs.o

.debug_macinfo
 *(.debug_macinfo)

.debug_ranges   0x00000000     0x88c0
 *(.debug_ranges)
 .debug_ranges  0x00000000       0x18 Main_mAbassi.o
 .debug_ranges  0x00000018       0x58 MyApp_Web.o
 .debug_ranges  0x00000070      0x180 MyFatFS.o
 .debug_ranges  0x000001f0      0x178 SysCall_noFS.o
 .debug_ranges  0x00000368       0x10 TIMERinit.o
 .debug_ranges  0x00000378       0xd8 CGI_SSI.o
 .debug_ranges  0x00000450       0x50 NetAddr.o
 .debug_ranges  0x000004a0      0x150 WebServer.o
 .debug_ranges  0x000005f0       0x48 httpserver-netconn.o
 .debug_ranges  0x00000638       0x10 arm_acp.o
 .debug_ranges  0x00000648      0x3d0 arm_pl330.o
 .debug_ranges  0x00000a18       0x38 alt_gpio.o
 .debug_ranges  0x00000a50      0x6d8 dw_ethernet.o
 .debug_ranges  0x00001128      0x1c8 dw_i2c.o
 .debug_ranges  0x000012f0      0x198 dw_uart.o
 .debug_ranges  0x00001488      0x350 dw_sdmmc.o
 .debug_ranges  0x000017d8      0xc28 alt_generalpurpose_io.o
 .debug_ranges  0x00002400      0x218 api_lib.o
 .debug_ranges  0x00002618      0x180 api_msg.o
 .debug_ranges  0x00002798       0x18 def.o
 .debug_ranges  0x000027b0      0x678 dhcp.o
 .debug_ranges  0x00002e28       0x10 err.o
 .debug_ranges  0x00002e38      0x340 etharp.o
 .debug_ranges  0x00003178      0x150 ethernetif.o
 .debug_ranges  0x000032c8       0x68 icmp.o
 .debug_ranges  0x00003330       0xd0 inet_chksum.o
 .debug_ranges  0x00003400       0x10 init.o
 .debug_ranges  0x00003410       0x98 ip.o
 .debug_ranges  0x000034a8       0x58 ip_addr.o
 .debug_ranges  0x00003500      0x1d0 ip_frag.o
 .debug_ranges  0x000036d0       0x68 mem.o
 .debug_ranges  0x00003738       0x20 memp.o
 .debug_ranges  0x00003758       0x50 netbuf.o
 .debug_ranges  0x000037a8      0x158 netif.o
 .debug_ranges  0x00003900      0x2c0 pbuf.o
 .debug_ranges  0x00003bc0       0x70 raw.o
 .debug_ranges  0x00003c30       0x10 sys.o
 .debug_ranges  0x00003c40       0xb8 sys_arch.o
 .debug_ranges  0x00003cf8      0x6d8 tcp.o
 .debug_ranges  0x000043d0       0xd8 tcp_in.o
 .debug_ranges  0x000044a8      0x3b8 tcp_out.o
 .debug_ranges  0x00004860       0x70 tcpip.o
 .debug_ranges  0x000048d0      0x118 timers.o
 .debug_ranges  0x000049e8       0xd8 udp.o
 .debug_ranges  0x00004ac0       0x38 Abassi_FatFS.o
 .debug_ranges  0x00004af8       0x58 Media_FatFS.o
 .debug_ranges  0x00004b50       0xb8 MediaIF.o
 .debug_ranges  0x00004c08       0x18 SysCall_CY5.o
 .debug_ranges  0x00004c20     0x3c10 ff.o
 .debug_ranges  0x00008830       0x20 ffunicode.o
 .debug_ranges  0x00008850       0x70 fs.o

.comment        0x00000000       0x30
 .comment       0x00000000       0x30 Main_mAbassi.o
                                 0x31 (size before relaxing)
 .comment       0x00000030       0x31 MyApp_Web.o
 .comment       0x00000030       0x31 MyFatFS.o
 .comment       0x00000030       0x31 SysCall_noFS.o
 .comment       0x00000030       0x31 TIMERinit.o
 .comment       0x00000030       0x31 CGI_SSI.o
 .comment       0x00000030       0x31 NetAddr.o
 .comment       0x00000030       0x31 WebServer.o
 .comment       0x00000030       0x31 httpserver-netconn.o
 .comment       0x00000030       0x31 arm_acp.o
 .comment       0x00000030       0x31 arm_pl330.o
 .comment       0x00000030       0x31 alt_gpio.o
 .comment       0x00000030       0x31 dw_ethernet.o
 .comment       0x00000030       0x31 dw_i2c.o
 .comment       0x00000030       0x31 dw_uart.o
 .comment       0x00000030       0x31 dw_sdmmc.o
 .comment       0x00000030       0x31 alt_generalpurpose_io.o
 .comment       0x00000030       0x31 api_lib.o
 .comment       0x00000030       0x31 api_msg.o
 .comment       0x00000030       0x31 autoip.o
 .comment       0x00000030       0x31 def.o
 .comment       0x00000030       0x31 dhcp.o
 .comment       0x00000030       0x31 dns.o
 .comment       0x00000030       0x31 err.o
 .comment       0x00000030       0x31 etharp.o
 .comment       0x00000030       0x31 ethernetif.o
 .comment       0x00000030       0x31 icmp.o
 .comment       0x00000030       0x31 igmp.o
 .comment       0x00000030       0x31 inet.o
 .comment       0x00000030       0x31 inet_chksum.o
 .comment       0x00000030       0x31 init.o
 .comment       0x00000030       0x31 ip.o
 .comment       0x00000030       0x31 ip_addr.o
 .comment       0x00000030       0x31 ip_frag.o
 .comment       0x00000030       0x31 mem.o
 .comment       0x00000030       0x31 memp.o
 .comment       0x00000030       0x31 netbuf.o
 .comment       0x00000030       0x31 netdb.o
 .comment       0x00000030       0x31 netif.o
 .comment       0x00000030       0x31 netifapi.o
 .comment       0x00000030       0x31 pbuf.o
 .comment       0x00000030       0x31 raw.o
 .comment       0x00000030       0x31 stats.o
 .comment       0x00000030       0x31 sys.o
 .comment       0x00000030       0x31 sys_arch.o
 .comment       0x00000030       0x31 sockets.o
 .comment       0x00000030       0x31 tcp.o
 .comment       0x00000030       0x31 tcp_in.o
 .comment       0x00000030       0x31 tcp_out.o
 .comment       0x00000030       0x31 tcpip.o
 .comment       0x00000030       0x31 timers.o
 .comment       0x00000030       0x31 udp.o
 .comment       0x00000030       0x31 Abassi_FatFS.o
 .comment       0x00000030       0x31 Media_FatFS.o
 .comment       0x00000030       0x31 MediaIF.o
 .comment       0x00000030       0x31 SysCall_CY5.o
 .comment       0x00000030       0x31 ff.o
 .comment       0x00000030       0x31 ffunicode.o
 .comment       0x00000030       0x31 fs.o
 .comment       0x00000030       0x31 mAbassiCfgA9.o
 .comment       0x00000030       0x31 ../../mAbassi/Platform/lib\lib_mAbassi_EVAL_R_GCC_AR5_CY5.a(mAbassi_EVAL_A9_GCC_2.o)

.debug_weaknames
 *(.debug_weaknames)

.debug_funcnames
 *(.debug_funcnames)

.debug_typenames
 *(.debug_typenames)

.debug_varnames
 *(.debug_varnames)

.note.gnu.arm.ident
 *(.note.gnu.arm.ident)

.ARM.attributes
                0x00000000       0x37
 *(.ARM.attributes)
 .ARM.attributes
                0x00000000       0x16 c:/intelfpga/18.0/embedded/host_tools/mentor/gnu/arm/baremetal/bin/../lib/gcc/arm-altera-eabi/6.2.0/crti.o
 .ARM.attributes
                0x00000016       0x30 c:/intelfpga/18.0/embedded/host_tools/mentor/gnu/arm/baremetal/bin/../lib/gcc/arm-altera-eabi/6.2.0/crtbegin.o
 .ARM.attributes
                0x00000046       0x3b Main_mAbassi.o
 .ARM.attributes
                0x00000081       0x3b MyApp_Web.o
 .ARM.attributes
                0x000000bc       0x3b MyFatFS.o
 .ARM.attributes
                0x000000f7       0x3b SysCall_noFS.o
 .ARM.attributes
                0x00000132       0x3b TIMERinit.o
 .ARM.attributes
                0x0000016d       0x3b CGI_SSI.o
 .ARM.attributes
                0x000001a8       0x3b NetAddr.o
 .ARM.attributes
                0x000001e3       0x3b WebServer.o
 .ARM.attributes
                0x0000021e       0x3b httpserver-netconn.o
 .ARM.attributes
                0x00000259       0x3b arm_acp.o
 .ARM.attributes
                0x00000294       0x3b arm_pl330.o
 .ARM.attributes
                0x000002cf       0x3b alt_gpio.o
 .ARM.attributes
                0x0000030a       0x3b dw_ethernet.o
 .ARM.attributes
                0x00000345       0x3b dw_i2c.o
 .ARM.attributes
                0x00000380       0x3b dw_uart.o
 .ARM.attributes
                0x000003bb       0x3b dw_sdmmc.o
 .ARM.attributes
                0x000003f6       0x3b alt_generalpurpose_io.o
 .ARM.attributes
                0x00000431       0x3b api_lib.o
 .ARM.attributes
                0x0000046c       0x3b api_msg.o
 .ARM.attributes
                0x000004a7       0x3b autoip.o
 .ARM.attributes
                0x000004e2       0x3b def.o
 .ARM.attributes
                0x0000051d       0x3b dhcp.o
 .ARM.attributes
                0x00000558       0x3b dns.o
 .ARM.attributes
                0x00000593       0x3b err.o
 .ARM.attributes
                0x000005ce       0x3b etharp.o
 .ARM.attributes
                0x00000609       0x3b ethernetif.o
 .ARM.attributes
                0x00000644       0x3b icmp.o
 .ARM.attributes
                0x0000067f       0x3b igmp.o
 .ARM.attributes
                0x000006ba       0x3b inet.o
 .ARM.attributes
                0x000006f5       0x3b inet_chksum.o
 .ARM.attributes
                0x00000730       0x3b init.o
 .ARM.attributes
                0x0000076b       0x3b ip.o
 .ARM.attributes
                0x000007a6       0x3b ip_addr.o
 .ARM.attributes
                0x000007e1       0x3b ip_frag.o
 .ARM.attributes
                0x0000081c       0x3b mem.o
 .ARM.attributes
                0x00000857       0x3b memp.o
 .ARM.attributes
                0x00000892       0x3b netbuf.o
 .ARM.attributes
                0x000008cd       0x3b netdb.o
 .ARM.attributes
                0x00000908       0x3b netif.o
 .ARM.attributes
                0x00000943       0x3b netifapi.o
 .ARM.attributes
                0x0000097e       0x3b pbuf.o
 .ARM.attributes
                0x000009b9       0x3b raw.o
 .ARM.attributes
                0x000009f4       0x3b stats.o
 .ARM.attributes
                0x00000a2f       0x3b sys.o
 .ARM.attributes
                0x00000a6a       0x3b sys_arch.o
 .ARM.attributes
                0x00000aa5       0x3b sockets.o
 .ARM.attributes
                0x00000ae0       0x3b tcp.o
 .ARM.attributes
                0x00000b1b       0x3b tcp_in.o
 .ARM.attributes
                0x00000b56       0x3b tcp_out.o
 .ARM.attributes
                0x00000b91       0x3b tcpip.o
 .ARM.attributes
                0x00000bcc       0x3b timers.o
 .ARM.attributes
                0x00000c07       0x3b udp.o
 .ARM.attributes
                0x00000c42       0x3b Abassi_FatFS.o
 .ARM.attributes
                0x00000c7d       0x3b Media_FatFS.o
 .ARM.attributes
                0x00000cb8       0x3b MediaIF.o
 .ARM.attributes
                0x00000cf3       0x3b SysCall_CY5.o
 .ARM.attributes
                0x00000d2e       0x3b ff.o
 .ARM.attributes
                0x00000d69       0x3b ffunicode.o
 .ARM.attributes
                0x00000da4       0x3b fs.o
 .ARM.attributes
                0x00000ddf       0x3b mAbassiCfgA9.o
 .ARM.attributes
                0x00000e1a       0x3b ../../mAbassi/Platform/lib\lib_mAbassi_EVAL_R_GCC_AR5_CY5.a(mAbassi_EVAL_A9_GCC_2.o)
 .ARM.attributes
                0x00000e55       0x2b ../../mAbassi/Platform/lib\lib_mAbassi_EVAL_R_GCC_AR5_CY5.a(mAbassi_EVAL_GCC_AR5_CY5.o)
 .ARM.attributes
                0x00000e80       0x2b ../../mAbassi/Platform/lib\lib_mAbassi_EVAL_R_GCC_AR5_CY5.a(ARMv7_SMP_L1_L2_GCC_AR5_CY5.o)
 .ARM.attributes
                0x00000eab       0x30 c:/intelfpga/18.0/embedded/host_tools/mentor/gnu/arm/baremetal/bin/../lib/gcc/arm-altera-eabi/6.2.0/../../../../arm-altera-eabi/lib\libcs3.a(start_c.o)
 .ARM.attributes
                0x00000edb       0x14 c:/intelfpga/18.0/embedded/host_tools/mentor/gnu/arm/baremetal/bin/../lib/gcc/arm-altera-eabi/6.2.0/../../../../arm-altera-eabi/lib\libcs3unhosted.a(unhosted-start.o)
 .ARM.attributes
                0x00000eef       0x18 c:/intelfpga/18.0/embedded/host_tools/mentor/gnu/arm/baremetal/bin/../lib/gcc/arm-altera-eabi/6.2.0\libgcc.a(_udivsi3.o)
 .ARM.attributes
                0x00000f07       0x18 c:/intelfpga/18.0/embedded/host_tools/mentor/gnu/arm/baremetal/bin/../lib/gcc/arm-altera-eabi/6.2.0\libgcc.a(_divsi3.o)
 .ARM.attributes
                0x00000f1f       0x18 c:/intelfpga/18.0/embedded/host_tools/mentor/gnu/arm/baremetal/bin/../lib/gcc/arm-altera-eabi/6.2.0\libgcc.a(_dvmd_tls.o)
 .ARM.attributes
                0x00000f37       0x18 c:/intelfpga/18.0/embedded/host_tools/mentor/gnu/arm/baremetal/bin/../lib/gcc/arm-altera-eabi/6.2.0\libgcc.a(_aeabi_ldivmod.o)
 .ARM.attributes
                0x00000f4f       0x18 c:/intelfpga/18.0/embedded/host_tools/mentor/gnu/arm/baremetal/bin/../lib/gcc/arm-altera-eabi/6.2.0\libgcc.a(_aeabi_uldivmod.o)
 .ARM.attributes
                0x00000f67       0x30 c:/intelfpga/18.0/embedded/host_tools/mentor/gnu/arm/baremetal/bin/../lib/gcc/arm-altera-eabi/6.2.0\libgcc.a(_udivmoddi4.o)
 .ARM.attributes
                0x00000f97       0x18 c:/intelfpga/18.0/embedded/host_tools/mentor/gnu/arm/baremetal/bin/../lib/gcc/arm-altera-eabi/6.2.0\libgcc.a(_clzdi2.o)
 .ARM.attributes
                0x00000faf       0x18 c:/intelfpga/18.0/embedded/host_tools/mentor/gnu/arm/baremetal/bin/../lib/gcc/arm-altera-eabi/6.2.0\libgcc.a(_clzsi2.o)
 .ARM.attributes
                0x00000fc7       0x30 c:/intelfpga/18.0/embedded/host_tools/mentor/gnu/arm/baremetal/bin/../lib/gcc/arm-altera-eabi/6.2.0/../../../../arm-altera-eabi/lib\libc.a(lib_a-calloc.o)
 .ARM.attributes
                0x00000ff7       0x30 c:/intelfpga/18.0/embedded/host_tools/mentor/gnu/arm/baremetal/bin/../lib/gcc/arm-altera-eabi/6.2.0/../../../../arm-altera-eabi/lib\libc.a(lib_a-callocr.o)
 .ARM.attributes
                0x00001027       0x30 c:/intelfpga/18.0/embedded/host_tools/mentor/gnu/arm/baremetal/bin/../lib/gcc/arm-altera-eabi/6.2.0/../../../../arm-altera-eabi/lib\libc.a(lib_a-errno.o)
 .ARM.attributes
                0x00001057       0x30 c:/intelfpga/18.0/embedded/host_tools/mentor/gnu/arm/baremetal/bin/../lib/gcc/arm-altera-eabi/6.2.0/../../../../arm-altera-eabi/lib\libc.a(lib_a-fwrite.o)
 .ARM.attributes
                0x00001087       0x30 c:/intelfpga/18.0/embedded/host_tools/mentor/gnu/arm/baremetal/bin/../lib/gcc/arm-altera-eabi/6.2.0/../../../../arm-altera-eabi/lib\libc.a(lib_a-gets.o)
 .ARM.attributes
                0x000010b7       0x30 c:/intelfpga/18.0/embedded/host_tools/mentor/gnu/arm/baremetal/bin/../lib/gcc/arm-altera-eabi/6.2.0/../../../../arm-altera-eabi/lib\libc.a(lib_a-impure.o)
 .ARM.attributes
                0x000010e7       0x30 c:/intelfpga/18.0/embedded/host_tools/mentor/gnu/arm/baremetal/bin/../lib/gcc/arm-altera-eabi/6.2.0/../../../../arm-altera-eabi/lib\libc.a(lib_a-init.o)
 .ARM.attributes
                0x00001117       0x30 c:/intelfpga/18.0/embedded/host_tools/mentor/gnu/arm/baremetal/bin/../lib/gcc/arm-altera-eabi/6.2.0/../../../../arm-altera-eabi/lib\libc.a(lib_a-malloc.o)
 .ARM.attributes
                0x00001147       0x30 c:/intelfpga/18.0/embedded/host_tools/mentor/gnu/arm/baremetal/bin/../lib/gcc/arm-altera-eabi/6.2.0/../../../../arm-altera-eabi/lib\libc.a(lib_a-mallocr.o)
 .ARM.attributes
                0x00001177       0x30 c:/intelfpga/18.0/embedded/host_tools/mentor/gnu/arm/baremetal/bin/../lib/gcc/arm-altera-eabi/6.2.0/../../../../arm-altera-eabi/lib\libc.a(lib_a-memcmp.o)
 .ARM.attributes
                0x000011a7       0x30 c:/intelfpga/18.0/embedded/host_tools/mentor/gnu/arm/baremetal/bin/../lib/gcc/arm-altera-eabi/6.2.0/../../../../arm-altera-eabi/lib\libc.a(lib_a-memcpy-stub.o)
 .ARM.attributes
                0x000011d7       0x30 c:/intelfpga/18.0/embedded/host_tools/mentor/gnu/arm/baremetal/bin/../lib/gcc/arm-altera-eabi/6.2.0/../../../../arm-altera-eabi/lib\libc.a(lib_a-memmove.o)
 .ARM.attributes
                0x00001207       0x30 c:/intelfpga/18.0/embedded/host_tools/mentor/gnu/arm/baremetal/bin/../lib/gcc/arm-altera-eabi/6.2.0/../../../../arm-altera-eabi/lib\libc.a(lib_a-memset.o)
 .ARM.attributes
                0x00001237       0x30 c:/intelfpga/18.0/embedded/host_tools/mentor/gnu/arm/baremetal/bin/../lib/gcc/arm-altera-eabi/6.2.0/../../../../arm-altera-eabi/lib\libc.a(lib_a-mktime.o)
 .ARM.attributes
                0x00001267       0x30 c:/intelfpga/18.0/embedded/host_tools/mentor/gnu/arm/baremetal/bin/../lib/gcc/arm-altera-eabi/6.2.0/../../../../arm-altera-eabi/lib\libc.a(lib_a-printf.o)
 .ARM.attributes
                0x00001297       0x30 c:/intelfpga/18.0/embedded/host_tools/mentor/gnu/arm/baremetal/bin/../lib/gcc/arm-altera-eabi/6.2.0/../../../../arm-altera-eabi/lib\libc.a(lib_a-putchar.o)
 .ARM.attributes
                0x000012c7       0x30 c:/intelfpga/18.0/embedded/host_tools/mentor/gnu/arm/baremetal/bin/../lib/gcc/arm-altera-eabi/6.2.0/../../../../arm-altera-eabi/lib\libc.a(lib_a-puts.o)
 .ARM.attributes
                0x000012f7       0x30 c:/intelfpga/18.0/embedded/host_tools/mentor/gnu/arm/baremetal/bin/../lib/gcc/arm-altera-eabi/6.2.0/../../../../arm-altera-eabi/lib\libc.a(lib_a-realloc.o)
 .ARM.attributes
                0x00001327       0x30 c:/intelfpga/18.0/embedded/host_tools/mentor/gnu/arm/baremetal/bin/../lib/gcc/arm-altera-eabi/6.2.0/../../../../arm-altera-eabi/lib\libc.a(lib_a-reallocr.o)
 .ARM.attributes
                0x00001357       0x30 c:/intelfpga/18.0/embedded/host_tools/mentor/gnu/arm/baremetal/bin/../lib/gcc/arm-altera-eabi/6.2.0/../../../../arm-altera-eabi/lib\libc.a(lib_a-rget.o)
 .ARM.attributes
                0x00001387       0x30 c:/intelfpga/18.0/embedded/host_tools/mentor/gnu/arm/baremetal/bin/../lib/gcc/arm-altera-eabi/6.2.0/../../../../arm-altera-eabi/lib\libc.a(lib_a-setvbuf.o)
 .ARM.attributes
                0x000013b7       0x30 c:/intelfpga/18.0/embedded/host_tools/mentor/gnu/arm/baremetal/bin/../lib/gcc/arm-altera-eabi/6.2.0/../../../../arm-altera-eabi/lib\libc.a(lib_a-sprintf.o)
 .ARM.attributes
                0x000013e7       0x30 c:/intelfpga/18.0/embedded/host_tools/mentor/gnu/arm/baremetal/bin/../lib/gcc/arm-altera-eabi/6.2.0/../../../../arm-altera-eabi/lib\libc.a(lib_a-stpcpy.o)
 .ARM.attributes
                0x00001417       0x30 c:/intelfpga/18.0/embedded/host_tools/mentor/gnu/arm/baremetal/bin/../lib/gcc/arm-altera-eabi/6.2.0/../../../../arm-altera-eabi/lib\libc.a(lib_a-strchr.o)
 .ARM.attributes
                0x00001447       0x16 c:/intelfpga/18.0/embedded/host_tools/mentor/gnu/arm/baremetal/bin/../lib/gcc/arm-altera-eabi/6.2.0/../../../../arm-altera-eabi/lib\libc.a(lib_a-strcmp.o)
 .ARM.attributes
                0x0000145d       0x30 c:/intelfpga/18.0/embedded/host_tools/mentor/gnu/arm/baremetal/bin/../lib/gcc/arm-altera-eabi/6.2.0/../../../../arm-altera-eabi/lib\libc.a(lib_a-strcpy.o)
 .ARM.attributes
                0x0000148d       0x30 c:/intelfpga/18.0/embedded/host_tools/mentor/gnu/arm/baremetal/bin/../lib/gcc/arm-altera-eabi/6.2.0/../../../../arm-altera-eabi/lib\libc.a(lib_a-strcspn.o)
 .ARM.attributes
                0x000014bd       0x30 c:/intelfpga/18.0/embedded/host_tools/mentor/gnu/arm/baremetal/bin/../lib/gcc/arm-altera-eabi/6.2.0/../../../../arm-altera-eabi/lib\libc.a(lib_a-strlen-stub.o)
 .ARM.attributes
                0x000014ed       0x30 c:/intelfpga/18.0/embedded/host_tools/mentor/gnu/arm/baremetal/bin/../lib/gcc/arm-altera-eabi/6.2.0/../../../../arm-altera-eabi/lib\libc.a(lib_a-strncmp.o)
 .ARM.attributes
                0x0000151d       0x30 c:/intelfpga/18.0/embedded/host_tools/mentor/gnu/arm/baremetal/bin/../lib/gcc/arm-altera-eabi/6.2.0/../../../../arm-altera-eabi/lib\libc.a(lib_a-strncpy.o)
 .ARM.attributes
                0x0000154d       0x30 c:/intelfpga/18.0/embedded/host_tools/mentor/gnu/arm/baremetal/bin/../lib/gcc/arm-altera-eabi/6.2.0/../../../../arm-altera-eabi/lib\libc.a(lib_a-strspn.o)
 .ARM.attributes
                0x0000157d       0x30 c:/intelfpga/18.0/embedded/host_tools/mentor/gnu/arm/baremetal/bin/../lib/gcc/arm-altera-eabi/6.2.0/../../../../arm-altera-eabi/lib\libc.a(lib_a-strstr.o)
 .ARM.attributes
                0x000015ad       0x30 c:/intelfpga/18.0/embedded/host_tools/mentor/gnu/arm/baremetal/bin/../lib/gcc/arm-altera-eabi/6.2.0/../../../../arm-altera-eabi/lib\libc.a(lib_a-strtol.o)
 .ARM.attributes
                0x000015dd       0x30 c:/intelfpga/18.0/embedded/host_tools/mentor/gnu/arm/baremetal/bin/../lib/gcc/arm-altera-eabi/6.2.0/../../../../arm-altera-eabi/lib\libc.a(lib_a-strtoul.o)
 .ARM.attributes
                0x0000160d       0x30 c:/intelfpga/18.0/embedded/host_tools/mentor/gnu/arm/baremetal/bin/../lib/gcc/arm-altera-eabi/6.2.0/../../../../arm-altera-eabi/lib\libc.a(lib_a-svfprintf.o)
 .ARM.attributes
                0x0000163d       0x30 c:/intelfpga/18.0/embedded/host_tools/mentor/gnu/arm/baremetal/bin/../lib/gcc/arm-altera-eabi/6.2.0/../../../../arm-altera-eabi/lib\libc.a(lib_a-tzcalc_limits.o)
 .ARM.attributes
                0x0000166d       0x30 c:/intelfpga/18.0/embedded/host_tools/mentor/gnu/arm/baremetal/bin/../lib/gcc/arm-altera-eabi/6.2.0/../../../../arm-altera-eabi/lib\libc.a(lib_a-tzset.o)
 .ARM.attributes
                0x0000169d       0x30 c:/intelfpga/18.0/embedded/host_tools/mentor/gnu/arm/baremetal/bin/../lib/gcc/arm-altera-eabi/6.2.0/../../../../arm-altera-eabi/lib\libc.a(lib_a-tzset_r.o)
 .ARM.attributes
                0x000016cd       0x30 c:/intelfpga/18.0/embedded/host_tools/mentor/gnu/arm/baremetal/bin/../lib/gcc/arm-altera-eabi/6.2.0/../../../../arm-altera-eabi/lib\libc.a(lib_a-tzvars.o)
 .ARM.attributes
                0x000016fd       0x30 c:/intelfpga/18.0/embedded/host_tools/mentor/gnu/arm/baremetal/bin/../lib/gcc/arm-altera-eabi/6.2.0/../../../../arm-altera-eabi/lib\libc.a(lib_a-vfprintf.o)
 .ARM.attributes
                0x0000172d       0x30 c:/intelfpga/18.0/embedded/host_tools/mentor/gnu/arm/baremetal/bin/../lib/gcc/arm-altera-eabi/6.2.0/../../../../arm-altera-eabi/lib\libc.a(lib_a-wbuf.o)
 .ARM.attributes
                0x0000175d       0x30 c:/intelfpga/18.0/embedded/host_tools/mentor/gnu/arm/baremetal/bin/../lib/gcc/arm-altera-eabi/6.2.0/../../../../arm-altera-eabi/lib\libc.a(lib_a-wsetup.o)
 .ARM.attributes
                0x0000178d       0x30 c:/intelfpga/18.0/embedded/host_tools/mentor/gnu/arm/baremetal/bin/../lib/gcc/arm-altera-eabi/6.2.0/../../../../arm-altera-eabi/lib\libc.a(lib_a-div.o)
 .ARM.attributes
                0x000017bd       0x30 c:/intelfpga/18.0/embedded/host_tools/mentor/gnu/arm/baremetal/bin/../lib/gcc/arm-altera-eabi/6.2.0/../../../../arm-altera-eabi/lib\libc.a(lib_a-dtoa.o)
 .ARM.attributes
                0x000017ed       0x30 c:/intelfpga/18.0/embedded/host_tools/mentor/gnu/arm/baremetal/bin/../lib/gcc/arm-altera-eabi/6.2.0/../../../../arm-altera-eabi/lib\libc.a(lib_a-fflush.o)
 .ARM.attributes
                0x0000181d       0x30 c:/intelfpga/18.0/embedded/host_tools/mentor/gnu/arm/baremetal/bin/../lib/gcc/arm-altera-eabi/6.2.0/../../../../arm-altera-eabi/lib\libc.a(lib_a-findfp.o)
 .ARM.attributes
                0x0000184d       0x30 c:/intelfpga/18.0/embedded/host_tools/mentor/gnu/arm/baremetal/bin/../lib/gcc/arm-altera-eabi/6.2.0/../../../../arm-altera-eabi/lib\libc.a(lib_a-freer.o)
 .ARM.attributes
                0x0000187d       0x30 c:/intelfpga/18.0/embedded/host_tools/mentor/gnu/arm/baremetal/bin/../lib/gcc/arm-altera-eabi/6.2.0/../../../../arm-altera-eabi/lib\libc.a(lib_a-fvwrite.o)
 .ARM.attributes
                0x000018ad       0x30 c:/intelfpga/18.0/embedded/host_tools/mentor/gnu/arm/baremetal/bin/../lib/gcc/arm-altera-eabi/6.2.0/../../../../arm-altera-eabi/lib\libc.a(lib_a-fwalk.o)
 .ARM.attributes
                0x000018dd       0x30 c:/intelfpga/18.0/embedded/host_tools/mentor/gnu/arm/baremetal/bin/../lib/gcc/arm-altera-eabi/6.2.0/../../../../arm-altera-eabi/lib\libc.a(lib_a-getenv_r.o)
 .ARM.attributes
                0x0000190d       0x30 c:/intelfpga/18.0/embedded/host_tools/mentor/gnu/arm/baremetal/bin/../lib/gcc/arm-altera-eabi/6.2.0/../../../../arm-altera-eabi/lib\libc.a(lib_a-gettzinfo.o)
 .ARM.attributes
                0x0000193d       0x30 c:/intelfpga/18.0/embedded/host_tools/mentor/gnu/arm/baremetal/bin/../lib/gcc/arm-altera-eabi/6.2.0/../../../../arm-altera-eabi/lib\libc.a(lib_a-locale.o)
 .ARM.attributes
                0x0000196d       0x30 c:/intelfpga/18.0/embedded/host_tools/mentor/gnu/arm/baremetal/bin/../lib/gcc/arm-altera-eabi/6.2.0/../../../../arm-altera-eabi/lib\libc.a(lib_a-localeconv.o)
 .ARM.attributes
                0x0000199d       0x30 c:/intelfpga/18.0/embedded/host_tools/mentor/gnu/arm/baremetal/bin/../lib/gcc/arm-altera-eabi/6.2.0/../../../../arm-altera-eabi/lib\libc.a(lib_a-makebuf.o)
 .ARM.attributes
                0x000019cd       0x30 c:/intelfpga/18.0/embedded/host_tools/mentor/gnu/arm/baremetal/bin/../lib/gcc/arm-altera-eabi/6.2.0/../../../../arm-altera-eabi/lib\libc.a(lib_a-mbtowc_r.o)
 .ARM.attributes
                0x000019fd       0x30 c:/intelfpga/18.0/embedded/host_tools/mentor/gnu/arm/baremetal/bin/../lib/gcc/arm-altera-eabi/6.2.0/../../../../arm-altera-eabi/lib\libc.a(lib_a-memchr-stub.o)
 .ARM.attributes
                0x00001a2d       0x30 c:/intelfpga/18.0/embedded/host_tools/mentor/gnu/arm/baremetal/bin/../lib/gcc/arm-altera-eabi/6.2.0/../../../../arm-altera-eabi/lib\libc.a(lib_a-month_lengths.o)
 .ARM.attributes
                0x00001a5d       0x30 c:/intelfpga/18.0/embedded/host_tools/mentor/gnu/arm/baremetal/bin/../lib/gcc/arm-altera-eabi/6.2.0/../../../../arm-altera-eabi/lib\libc.a(lib_a-mprec.o)
 .ARM.attributes
                0x00001a8d       0x30 c:/intelfpga/18.0/embedded/host_tools/mentor/gnu/arm/baremetal/bin/../lib/gcc/arm-altera-eabi/6.2.0/../../../../arm-altera-eabi/lib\libc.a(lib_a-putc.o)
 .ARM.attributes
                0x00001abd       0x30 c:/intelfpga/18.0/embedded/host_tools/mentor/gnu/arm/baremetal/bin/../lib/gcc/arm-altera-eabi/6.2.0/../../../../arm-altera-eabi/lib\libc.a(lib_a-refill.o)
 .ARM.attributes
                0x00001aed       0x30 c:/intelfpga/18.0/embedded/host_tools/mentor/gnu/arm/baremetal/bin/../lib/gcc/arm-altera-eabi/6.2.0/../../../../arm-altera-eabi/lib\libc.a(lib_a-siscanf.o)
 .ARM.attributes
                0x00001b1d       0x30 c:/intelfpga/18.0/embedded/host_tools/mentor/gnu/arm/baremetal/bin/../lib/gcc/arm-altera-eabi/6.2.0/../../../../arm-altera-eabi/lib\libc.a(lib_a-stdio.o)
 .ARM.attributes
                0x00001b4d       0x30 c:/intelfpga/18.0/embedded/host_tools/mentor/gnu/arm/baremetal/bin/../lib/gcc/arm-altera-eabi/6.2.0/../../../../arm-altera-eabi/lib\libc.a(lib_a-svfiprintf.o)
 .ARM.attributes
                0x00001b7d       0x30 c:/intelfpga/18.0/embedded/host_tools/mentor/gnu/arm/baremetal/bin/../lib/gcc/arm-altera-eabi/6.2.0/../../../../arm-altera-eabi/lib\libc.a(lib_a-svfiscanf.o)
 .ARM.attributes
                0x00001bad       0x30 c:/intelfpga/18.0/embedded/host_tools/mentor/gnu/arm/baremetal/bin/../lib/gcc/arm-altera-eabi/6.2.0/../../../../arm-altera-eabi/lib\libc.a(lib_a-ungetc.o)
 .ARM.attributes
                0x00001bdd       0x30 c:/intelfpga/18.0/embedded/host_tools/mentor/gnu/arm/baremetal/bin/../lib/gcc/arm-altera-eabi/6.2.0/../../../../arm-altera-eabi/lib\libc.a(lib_a-vfiprintf.o)
 .ARM.attributes
                0x00001c0d       0x30 c:/intelfpga/18.0/embedded/host_tools/mentor/gnu/arm/baremetal/bin/../lib/gcc/arm-altera-eabi/6.2.0/../../../../arm-altera-eabi/lib\libc.a(lib_a-wctomb_r.o)
 .ARM.attributes
                0x00001c3d       0x30 c:/intelfpga/18.0/embedded/host_tools/mentor/gnu/arm/baremetal/bin/../lib/gcc/arm-altera-eabi/6.2.0/../../../../arm-altera-eabi/lib\libc.a(lib_a-ctype_.o)
 .ARM.attributes
                0x00001c6d       0x30 c:/intelfpga/18.0/embedded/host_tools/mentor/gnu/arm/baremetal/bin/../lib/gcc/arm-altera-eabi/6.2.0/../../../../arm-altera-eabi/lib\libc.a(lib_a-environ.o)
 .ARM.attributes
                0x00001c9d       0x30 c:/intelfpga/18.0/embedded/host_tools/mentor/gnu/arm/baremetal/bin/../lib/gcc/arm-altera-eabi/6.2.0/../../../../arm-altera-eabi/lib\libc.a(lib_a-fclose.o)
 .ARM.attributes
                0x00001ccd       0x30 c:/intelfpga/18.0/embedded/host_tools/mentor/gnu/arm/baremetal/bin/../lib/gcc/arm-altera-eabi/6.2.0/../../../../arm-altera-eabi/lib\libc.a(lib_a-fputwc.o)
 .ARM.attributes
                0x00001cfd       0x30 c:/intelfpga/18.0/embedded/host_tools/mentor/gnu/arm/baremetal/bin/../lib/gcc/arm-altera-eabi/6.2.0/../../../../arm-altera-eabi/lib\libc.a(lib_a-iswspace.o)
 .ARM.attributes
                0x00001d2d       0x30 c:/intelfpga/18.0/embedded/host_tools/mentor/gnu/arm/baremetal/bin/../lib/gcc/arm-altera-eabi/6.2.0/../../../../arm-altera-eabi/lib\libc.a(lib_a-mbrtowc.o)
 .ARM.attributes
                0x00001d5d       0x30 c:/intelfpga/18.0/embedded/host_tools/mentor/gnu/arm/baremetal/bin/../lib/gcc/arm-altera-eabi/6.2.0/../../../../arm-altera-eabi/lib\libc.a(lib_a-sccl.o)
 .ARM.attributes
                0x00001d8d       0x30 c:/intelfpga/18.0/embedded/host_tools/mentor/gnu/arm/baremetal/bin/../lib/gcc/arm-altera-eabi/6.2.0/../../../../arm-altera-eabi/lib\libc.a(lib_a-strtoll.o)
 .ARM.attributes
                0x00001dbd       0x30 c:/intelfpga/18.0/embedded/host_tools/mentor/gnu/arm/baremetal/bin/../lib/gcc/arm-altera-eabi/6.2.0/../../../../arm-altera-eabi/lib\libc.a(lib_a-strtoull.o)
 .ARM.attributes
                0x00001ded       0x30 c:/intelfpga/18.0/embedded/host_tools/mentor/gnu/arm/baremetal/bin/../lib/gcc/arm-altera-eabi/6.2.0/../../../../arm-altera-eabi/lib\libc.a(lib_a-wcrtomb.o)
 .ARM.attributes
                0x00001e1d       0x18 c:/intelfpga/18.0/embedded/host_tools/mentor/gnu/arm/baremetal/bin/../lib/gcc/arm-altera-eabi/6.2.0\libgcc.a(_arm_addsubdf3.o)
 .ARM.attributes
                0x00001e35       0x18 c:/intelfpga/18.0/embedded/host_tools/mentor/gnu/arm/baremetal/bin/../lib/gcc/arm-altera-eabi/6.2.0\libgcc.a(_arm_muldivdf3.o)
 .ARM.attributes
                0x00001e4d       0x18 c:/intelfpga/18.0/embedded/host_tools/mentor/gnu/arm/baremetal/bin/../lib/gcc/arm-altera-eabi/6.2.0\libgcc.a(_arm_cmpdf2.o)
 .ARM.attributes
                0x00001e65       0x18 c:/intelfpga/18.0/embedded/host_tools/mentor/gnu/arm/baremetal/bin/../lib/gcc/arm-altera-eabi/6.2.0\libgcc.a(_arm_unorddf2.o)
 .ARM.attributes
                0x00001e7d       0x18 c:/intelfpga/18.0/embedded/host_tools/mentor/gnu/arm/baremetal/bin/../lib/gcc/arm-altera-eabi/6.2.0\libgcc.a(_arm_fixdfsi.o)
 .ARM.attributes
                0x00001e95       0x30 c:/intelfpga/18.0/embedded/host_tools/mentor/gnu/arm/baremetal/bin/../lib/gcc/arm-altera-eabi/6.2.0/crtend.o
 .ARM.attributes
                0x00001ec5       0x18 c:/intelfpga/18.0/embedded/host_tools/mentor/gnu/arm/baremetal/bin/../lib/gcc/arm-altera-eabi/6.2.0/crtn.o

/DISCARD/
 *(.note.GNU-stack)
                0x00000001                ASSERT ((__StackLimit >= __HeapLimit), region ram overflowed with stack)
OUTPUT(MyApp_Web_SMP_DE0NANOSOC_A9_GCC.axf elf32-littlearm)
